
miniRT:     file format elf64-x86-64


Disassembly of section .init:

0000000000002000 <_init>:
    2000:	f3 0f 1e fa          	endbr64 
    2004:	48 83 ec 08          	sub    rsp,0x8
    2008:	48 8b 05 81 ef 00 00 	mov    rax,QWORD PTR [rip+0xef81]        # 10f90 <__gmon_start__@Base>
    200f:	48 85 c0             	test   rax,rax
    2012:	74 02                	je     2016 <_init+0x16>
    2014:	ff d0                	call   rax
    2016:	48 83 c4 08          	add    rsp,0x8
    201a:	c3                   	ret    

Disassembly of section .plt:

0000000000002020 <.plt>:
    2020:	ff 35 52 ed 00 00    	push   QWORD PTR [rip+0xed52]        # 10d78 <_GLOBAL_OFFSET_TABLE_+0x8>
    2026:	f2 ff 25 53 ed 00 00 	bnd jmp QWORD PTR [rip+0xed53]        # 10d80 <_GLOBAL_OFFSET_TABLE_+0x10>
    202d:	0f 1f 00             	nop    DWORD PTR [rax]
    2030:	f3 0f 1e fa          	endbr64 
    2034:	68 00 00 00 00       	push   0x0
    2039:	f2 e9 e1 ff ff ff    	bnd jmp 2020 <_init+0x20>
    203f:	90                   	nop
    2040:	f3 0f 1e fa          	endbr64 
    2044:	68 01 00 00 00       	push   0x1
    2049:	f2 e9 d1 ff ff ff    	bnd jmp 2020 <_init+0x20>
    204f:	90                   	nop
    2050:	f3 0f 1e fa          	endbr64 
    2054:	68 02 00 00 00       	push   0x2
    2059:	f2 e9 c1 ff ff ff    	bnd jmp 2020 <_init+0x20>
    205f:	90                   	nop
    2060:	f3 0f 1e fa          	endbr64 
    2064:	68 03 00 00 00       	push   0x3
    2069:	f2 e9 b1 ff ff ff    	bnd jmp 2020 <_init+0x20>
    206f:	90                   	nop
    2070:	f3 0f 1e fa          	endbr64 
    2074:	68 04 00 00 00       	push   0x4
    2079:	f2 e9 a1 ff ff ff    	bnd jmp 2020 <_init+0x20>
    207f:	90                   	nop
    2080:	f3 0f 1e fa          	endbr64 
    2084:	68 05 00 00 00       	push   0x5
    2089:	f2 e9 91 ff ff ff    	bnd jmp 2020 <_init+0x20>
    208f:	90                   	nop
    2090:	f3 0f 1e fa          	endbr64 
    2094:	68 06 00 00 00       	push   0x6
    2099:	f2 e9 81 ff ff ff    	bnd jmp 2020 <_init+0x20>
    209f:	90                   	nop
    20a0:	f3 0f 1e fa          	endbr64 
    20a4:	68 07 00 00 00       	push   0x7
    20a9:	f2 e9 71 ff ff ff    	bnd jmp 2020 <_init+0x20>
    20af:	90                   	nop
    20b0:	f3 0f 1e fa          	endbr64 
    20b4:	68 08 00 00 00       	push   0x8
    20b9:	f2 e9 61 ff ff ff    	bnd jmp 2020 <_init+0x20>
    20bf:	90                   	nop
    20c0:	f3 0f 1e fa          	endbr64 
    20c4:	68 09 00 00 00       	push   0x9
    20c9:	f2 e9 51 ff ff ff    	bnd jmp 2020 <_init+0x20>
    20cf:	90                   	nop
    20d0:	f3 0f 1e fa          	endbr64 
    20d4:	68 0a 00 00 00       	push   0xa
    20d9:	f2 e9 41 ff ff ff    	bnd jmp 2020 <_init+0x20>
    20df:	90                   	nop
    20e0:	f3 0f 1e fa          	endbr64 
    20e4:	68 0b 00 00 00       	push   0xb
    20e9:	f2 e9 31 ff ff ff    	bnd jmp 2020 <_init+0x20>
    20ef:	90                   	nop
    20f0:	f3 0f 1e fa          	endbr64 
    20f4:	68 0c 00 00 00       	push   0xc
    20f9:	f2 e9 21 ff ff ff    	bnd jmp 2020 <_init+0x20>
    20ff:	90                   	nop
    2100:	f3 0f 1e fa          	endbr64 
    2104:	68 0d 00 00 00       	push   0xd
    2109:	f2 e9 11 ff ff ff    	bnd jmp 2020 <_init+0x20>
    210f:	90                   	nop
    2110:	f3 0f 1e fa          	endbr64 
    2114:	68 0e 00 00 00       	push   0xe
    2119:	f2 e9 01 ff ff ff    	bnd jmp 2020 <_init+0x20>
    211f:	90                   	nop
    2120:	f3 0f 1e fa          	endbr64 
    2124:	68 0f 00 00 00       	push   0xf
    2129:	f2 e9 f1 fe ff ff    	bnd jmp 2020 <_init+0x20>
    212f:	90                   	nop
    2130:	f3 0f 1e fa          	endbr64 
    2134:	68 10 00 00 00       	push   0x10
    2139:	f2 e9 e1 fe ff ff    	bnd jmp 2020 <_init+0x20>
    213f:	90                   	nop
    2140:	f3 0f 1e fa          	endbr64 
    2144:	68 11 00 00 00       	push   0x11
    2149:	f2 e9 d1 fe ff ff    	bnd jmp 2020 <_init+0x20>
    214f:	90                   	nop
    2150:	f3 0f 1e fa          	endbr64 
    2154:	68 12 00 00 00       	push   0x12
    2159:	f2 e9 c1 fe ff ff    	bnd jmp 2020 <_init+0x20>
    215f:	90                   	nop
    2160:	f3 0f 1e fa          	endbr64 
    2164:	68 13 00 00 00       	push   0x13
    2169:	f2 e9 b1 fe ff ff    	bnd jmp 2020 <_init+0x20>
    216f:	90                   	nop
    2170:	f3 0f 1e fa          	endbr64 
    2174:	68 14 00 00 00       	push   0x14
    2179:	f2 e9 a1 fe ff ff    	bnd jmp 2020 <_init+0x20>
    217f:	90                   	nop
    2180:	f3 0f 1e fa          	endbr64 
    2184:	68 15 00 00 00       	push   0x15
    2189:	f2 e9 91 fe ff ff    	bnd jmp 2020 <_init+0x20>
    218f:	90                   	nop
    2190:	f3 0f 1e fa          	endbr64 
    2194:	68 16 00 00 00       	push   0x16
    2199:	f2 e9 81 fe ff ff    	bnd jmp 2020 <_init+0x20>
    219f:	90                   	nop
    21a0:	f3 0f 1e fa          	endbr64 
    21a4:	68 17 00 00 00       	push   0x17
    21a9:	f2 e9 71 fe ff ff    	bnd jmp 2020 <_init+0x20>
    21af:	90                   	nop
    21b0:	f3 0f 1e fa          	endbr64 
    21b4:	68 18 00 00 00       	push   0x18
    21b9:	f2 e9 61 fe ff ff    	bnd jmp 2020 <_init+0x20>
    21bf:	90                   	nop
    21c0:	f3 0f 1e fa          	endbr64 
    21c4:	68 19 00 00 00       	push   0x19
    21c9:	f2 e9 51 fe ff ff    	bnd jmp 2020 <_init+0x20>
    21cf:	90                   	nop
    21d0:	f3 0f 1e fa          	endbr64 
    21d4:	68 1a 00 00 00       	push   0x1a
    21d9:	f2 e9 41 fe ff ff    	bnd jmp 2020 <_init+0x20>
    21df:	90                   	nop
    21e0:	f3 0f 1e fa          	endbr64 
    21e4:	68 1b 00 00 00       	push   0x1b
    21e9:	f2 e9 31 fe ff ff    	bnd jmp 2020 <_init+0x20>
    21ef:	90                   	nop
    21f0:	f3 0f 1e fa          	endbr64 
    21f4:	68 1c 00 00 00       	push   0x1c
    21f9:	f2 e9 21 fe ff ff    	bnd jmp 2020 <_init+0x20>
    21ff:	90                   	nop
    2200:	f3 0f 1e fa          	endbr64 
    2204:	68 1d 00 00 00       	push   0x1d
    2209:	f2 e9 11 fe ff ff    	bnd jmp 2020 <_init+0x20>
    220f:	90                   	nop
    2210:	f3 0f 1e fa          	endbr64 
    2214:	68 1e 00 00 00       	push   0x1e
    2219:	f2 e9 01 fe ff ff    	bnd jmp 2020 <_init+0x20>
    221f:	90                   	nop
    2220:	f3 0f 1e fa          	endbr64 
    2224:	68 1f 00 00 00       	push   0x1f
    2229:	f2 e9 f1 fd ff ff    	bnd jmp 2020 <_init+0x20>
    222f:	90                   	nop
    2230:	f3 0f 1e fa          	endbr64 
    2234:	68 20 00 00 00       	push   0x20
    2239:	f2 e9 e1 fd ff ff    	bnd jmp 2020 <_init+0x20>
    223f:	90                   	nop
    2240:	f3 0f 1e fa          	endbr64 
    2244:	68 21 00 00 00       	push   0x21
    2249:	f2 e9 d1 fd ff ff    	bnd jmp 2020 <_init+0x20>
    224f:	90                   	nop
    2250:	f3 0f 1e fa          	endbr64 
    2254:	68 22 00 00 00       	push   0x22
    2259:	f2 e9 c1 fd ff ff    	bnd jmp 2020 <_init+0x20>
    225f:	90                   	nop
    2260:	f3 0f 1e fa          	endbr64 
    2264:	68 23 00 00 00       	push   0x23
    2269:	f2 e9 b1 fd ff ff    	bnd jmp 2020 <_init+0x20>
    226f:	90                   	nop
    2270:	f3 0f 1e fa          	endbr64 
    2274:	68 24 00 00 00       	push   0x24
    2279:	f2 e9 a1 fd ff ff    	bnd jmp 2020 <_init+0x20>
    227f:	90                   	nop
    2280:	f3 0f 1e fa          	endbr64 
    2284:	68 25 00 00 00       	push   0x25
    2289:	f2 e9 91 fd ff ff    	bnd jmp 2020 <_init+0x20>
    228f:	90                   	nop
    2290:	f3 0f 1e fa          	endbr64 
    2294:	68 26 00 00 00       	push   0x26
    2299:	f2 e9 81 fd ff ff    	bnd jmp 2020 <_init+0x20>
    229f:	90                   	nop
    22a0:	f3 0f 1e fa          	endbr64 
    22a4:	68 27 00 00 00       	push   0x27
    22a9:	f2 e9 71 fd ff ff    	bnd jmp 2020 <_init+0x20>
    22af:	90                   	nop
    22b0:	f3 0f 1e fa          	endbr64 
    22b4:	68 28 00 00 00       	push   0x28
    22b9:	f2 e9 61 fd ff ff    	bnd jmp 2020 <_init+0x20>
    22bf:	90                   	nop
    22c0:	f3 0f 1e fa          	endbr64 
    22c4:	68 29 00 00 00       	push   0x29
    22c9:	f2 e9 51 fd ff ff    	bnd jmp 2020 <_init+0x20>
    22cf:	90                   	nop
    22d0:	f3 0f 1e fa          	endbr64 
    22d4:	68 2a 00 00 00       	push   0x2a
    22d9:	f2 e9 41 fd ff ff    	bnd jmp 2020 <_init+0x20>
    22df:	90                   	nop
    22e0:	f3 0f 1e fa          	endbr64 
    22e4:	68 2b 00 00 00       	push   0x2b
    22e9:	f2 e9 31 fd ff ff    	bnd jmp 2020 <_init+0x20>
    22ef:	90                   	nop
    22f0:	f3 0f 1e fa          	endbr64 
    22f4:	68 2c 00 00 00       	push   0x2c
    22f9:	f2 e9 21 fd ff ff    	bnd jmp 2020 <_init+0x20>
    22ff:	90                   	nop
    2300:	f3 0f 1e fa          	endbr64 
    2304:	68 2d 00 00 00       	push   0x2d
    2309:	f2 e9 11 fd ff ff    	bnd jmp 2020 <_init+0x20>
    230f:	90                   	nop
    2310:	f3 0f 1e fa          	endbr64 
    2314:	68 2e 00 00 00       	push   0x2e
    2319:	f2 e9 01 fd ff ff    	bnd jmp 2020 <_init+0x20>
    231f:	90                   	nop
    2320:	f3 0f 1e fa          	endbr64 
    2324:	68 2f 00 00 00       	push   0x2f
    2329:	f2 e9 f1 fc ff ff    	bnd jmp 2020 <_init+0x20>
    232f:	90                   	nop
    2330:	f3 0f 1e fa          	endbr64 
    2334:	68 30 00 00 00       	push   0x30
    2339:	f2 e9 e1 fc ff ff    	bnd jmp 2020 <_init+0x20>
    233f:	90                   	nop
    2340:	f3 0f 1e fa          	endbr64 
    2344:	68 31 00 00 00       	push   0x31
    2349:	f2 e9 d1 fc ff ff    	bnd jmp 2020 <_init+0x20>
    234f:	90                   	nop
    2350:	f3 0f 1e fa          	endbr64 
    2354:	68 32 00 00 00       	push   0x32
    2359:	f2 e9 c1 fc ff ff    	bnd jmp 2020 <_init+0x20>
    235f:	90                   	nop
    2360:	f3 0f 1e fa          	endbr64 
    2364:	68 33 00 00 00       	push   0x33
    2369:	f2 e9 b1 fc ff ff    	bnd jmp 2020 <_init+0x20>
    236f:	90                   	nop
    2370:	f3 0f 1e fa          	endbr64 
    2374:	68 34 00 00 00       	push   0x34
    2379:	f2 e9 a1 fc ff ff    	bnd jmp 2020 <_init+0x20>
    237f:	90                   	nop
    2380:	f3 0f 1e fa          	endbr64 
    2384:	68 35 00 00 00       	push   0x35
    2389:	f2 e9 91 fc ff ff    	bnd jmp 2020 <_init+0x20>
    238f:	90                   	nop
    2390:	f3 0f 1e fa          	endbr64 
    2394:	68 36 00 00 00       	push   0x36
    2399:	f2 e9 81 fc ff ff    	bnd jmp 2020 <_init+0x20>
    239f:	90                   	nop
    23a0:	f3 0f 1e fa          	endbr64 
    23a4:	68 37 00 00 00       	push   0x37
    23a9:	f2 e9 71 fc ff ff    	bnd jmp 2020 <_init+0x20>
    23af:	90                   	nop
    23b0:	f3 0f 1e fa          	endbr64 
    23b4:	68 38 00 00 00       	push   0x38
    23b9:	f2 e9 61 fc ff ff    	bnd jmp 2020 <_init+0x20>
    23bf:	90                   	nop
    23c0:	f3 0f 1e fa          	endbr64 
    23c4:	68 39 00 00 00       	push   0x39
    23c9:	f2 e9 51 fc ff ff    	bnd jmp 2020 <_init+0x20>
    23cf:	90                   	nop
    23d0:	f3 0f 1e fa          	endbr64 
    23d4:	68 3a 00 00 00       	push   0x3a
    23d9:	f2 e9 41 fc ff ff    	bnd jmp 2020 <_init+0x20>
    23df:	90                   	nop
    23e0:	f3 0f 1e fa          	endbr64 
    23e4:	68 3b 00 00 00       	push   0x3b
    23e9:	f2 e9 31 fc ff ff    	bnd jmp 2020 <_init+0x20>
    23ef:	90                   	nop
    23f0:	f3 0f 1e fa          	endbr64 
    23f4:	68 3c 00 00 00       	push   0x3c
    23f9:	f2 e9 21 fc ff ff    	bnd jmp 2020 <_init+0x20>
    23ff:	90                   	nop
    2400:	f3 0f 1e fa          	endbr64 
    2404:	68 3d 00 00 00       	push   0x3d
    2409:	f2 e9 11 fc ff ff    	bnd jmp 2020 <_init+0x20>
    240f:	90                   	nop
    2410:	f3 0f 1e fa          	endbr64 
    2414:	68 3e 00 00 00       	push   0x3e
    2419:	f2 e9 01 fc ff ff    	bnd jmp 2020 <_init+0x20>
    241f:	90                   	nop
    2420:	f3 0f 1e fa          	endbr64 
    2424:	68 3f 00 00 00       	push   0x3f
    2429:	f2 e9 f1 fb ff ff    	bnd jmp 2020 <_init+0x20>
    242f:	90                   	nop
    2430:	f3 0f 1e fa          	endbr64 
    2434:	68 40 00 00 00       	push   0x40
    2439:	f2 e9 e1 fb ff ff    	bnd jmp 2020 <_init+0x20>
    243f:	90                   	nop

Disassembly of section .plt.got:

0000000000002440 <__cxa_finalize@plt>:
    2440:	f3 0f 1e fa          	endbr64 
    2444:	f2 ff 25 7d eb 00 00 	bnd jmp QWORD PTR [rip+0xeb7d]        # 10fc8 <__cxa_finalize@GLIBC_2.2.5>
    244b:	0f 1f 44 00 00       	nop    DWORD PTR [rax+rax*1+0x0]

Disassembly of section .plt.sec:

0000000000002450 <memset@plt>:
    2450:	f3 0f 1e fa          	endbr64 
    2454:	f2 ff 25 2d e9 00 00 	bnd jmp QWORD PTR [rip+0xe92d]        # 10d88 <memset@GLIBC_2.2.5>
    245b:	0f 1f 44 00 00       	nop    DWORD PTR [rax+rax*1+0x0]

0000000000002460 <XClearWindow@plt>:
    2460:	f3 0f 1e fa          	endbr64 
    2464:	f2 ff 25 25 e9 00 00 	bnd jmp QWORD PTR [rip+0xe925]        # 10d90 <XClearWindow@Base>
    246b:	0f 1f 44 00 00       	nop    DWORD PTR [rax+rax*1+0x0]

0000000000002470 <close@plt>:
    2470:	f3 0f 1e fa          	endbr64 
    2474:	f2 ff 25 1d e9 00 00 	bnd jmp QWORD PTR [rip+0xe91d]        # 10d98 <close@GLIBC_2.2.5>
    247b:	0f 1f 44 00 00       	nop    DWORD PTR [rax+rax*1+0x0]

0000000000002480 <shmdt@plt>:
    2480:	f3 0f 1e fa          	endbr64 
    2484:	f2 ff 25 15 e9 00 00 	bnd jmp QWORD PTR [rip+0xe915]        # 10da0 <shmdt@GLIBC_2.2.5>
    248b:	0f 1f 44 00 00       	nop    DWORD PTR [rax+rax*1+0x0]

0000000000002490 <tanf@plt>:
    2490:	f3 0f 1e fa          	endbr64 
    2494:	f2 ff 25 0d e9 00 00 	bnd jmp QWORD PTR [rip+0xe90d]        # 10da8 <tanf@GLIBC_2.2.5>
    249b:	0f 1f 44 00 00       	nop    DWORD PTR [rax+rax*1+0x0]

00000000000024a0 <XStoreName@plt>:
    24a0:	f3 0f 1e fa          	endbr64 
    24a4:	f2 ff 25 05 e9 00 00 	bnd jmp QWORD PTR [rip+0xe905]        # 10db0 <XStoreName@Base>
    24ab:	0f 1f 44 00 00       	nop    DWORD PTR [rax+rax*1+0x0]

00000000000024b0 <XGetWMNormalHints@plt>:
    24b0:	f3 0f 1e fa          	endbr64 
    24b4:	f2 ff 25 fd e8 00 00 	bnd jmp QWORD PTR [rip+0xe8fd]        # 10db8 <XGetWMNormalHints@Base>
    24bb:	0f 1f 44 00 00       	nop    DWORD PTR [rax+rax*1+0x0]

00000000000024c0 <puts@plt>:
    24c0:	f3 0f 1e fa          	endbr64 
    24c4:	f2 ff 25 f5 e8 00 00 	bnd jmp QWORD PTR [rip+0xe8f5]        # 10dc0 <puts@GLIBC_2.2.5>
    24cb:	0f 1f 44 00 00       	nop    DWORD PTR [rax+rax*1+0x0]

00000000000024d0 <XAutoRepeatOff@plt>:
    24d0:	f3 0f 1e fa          	endbr64 
    24d4:	f2 ff 25 ed e8 00 00 	bnd jmp QWORD PTR [rip+0xe8ed]        # 10dc8 <XAutoRepeatOff@Base>
    24db:	0f 1f 44 00 00       	nop    DWORD PTR [rax+rax*1+0x0]

00000000000024e0 <exit@plt>:
    24e0:	f3 0f 1e fa          	endbr64 
    24e4:	f2 ff 25 e5 e8 00 00 	bnd jmp QWORD PTR [rip+0xe8e5]        # 10dd0 <exit@GLIBC_2.2.5>
    24eb:	0f 1f 44 00 00       	nop    DWORD PTR [rax+rax*1+0x0]

00000000000024f0 <__printf_chk@plt>:
    24f0:	f3 0f 1e fa          	endbr64 
    24f4:	f2 ff 25 dd e8 00 00 	bnd jmp QWORD PTR [rip+0xe8dd]        # 10dd8 <__printf_chk@GLIBC_2.3.4>
    24fb:	0f 1f 44 00 00       	nop    DWORD PTR [rax+rax*1+0x0]

0000000000002500 <XCreateImage@plt>:
    2500:	f3 0f 1e fa          	endbr64 
    2504:	f2 ff 25 d5 e8 00 00 	bnd jmp QWORD PTR [rip+0xe8d5]        # 10de0 <XCreateImage@Base>
    250b:	0f 1f 44 00 00       	nop    DWORD PTR [rax+rax*1+0x0]

0000000000002510 <XShmCreatePixmap@plt>:
    2510:	f3 0f 1e fa          	endbr64 
    2514:	f2 ff 25 cd e8 00 00 	bnd jmp QWORD PTR [rip+0xe8cd]        # 10de8 <XShmCreatePixmap@Base>
    251b:	0f 1f 44 00 00       	nop    DWORD PTR [rax+rax*1+0x0]

0000000000002520 <read@plt>:
    2520:	f3 0f 1e fa          	endbr64 
    2524:	f2 ff 25 c5 e8 00 00 	bnd jmp QWORD PTR [rip+0xe8c5]        # 10df0 <read@GLIBC_2.2.5>
    252b:	0f 1f 44 00 00       	nop    DWORD PTR [rax+rax*1+0x0]

0000000000002530 <strncmp@plt>:
    2530:	f3 0f 1e fa          	endbr64 
    2534:	f2 ff 25 bd e8 00 00 	bnd jmp QWORD PTR [rip+0xe8bd]        # 10df8 <strncmp@GLIBC_2.2.5>
    253b:	0f 1f 44 00 00       	nop    DWORD PTR [rax+rax*1+0x0]

0000000000002540 <malloc@plt>:
    2540:	f3 0f 1e fa          	endbr64 
    2544:	f2 ff 25 b5 e8 00 00 	bnd jmp QWORD PTR [rip+0xe8b5]        # 10e00 <malloc@GLIBC_2.2.5>
    254b:	0f 1f 44 00 00       	nop    DWORD PTR [rax+rax*1+0x0]

0000000000002550 <XSetWMNormalHints@plt>:
    2550:	f3 0f 1e fa          	endbr64 
    2554:	f2 ff 25 ad e8 00 00 	bnd jmp QWORD PTR [rip+0xe8ad]        # 10e08 <XSetWMNormalHints@Base>
    255b:	0f 1f 44 00 00       	nop    DWORD PTR [rax+rax*1+0x0]

0000000000002560 <XCreateWindow@plt>:
    2560:	f3 0f 1e fa          	endbr64 
    2564:	f2 ff 25 a5 e8 00 00 	bnd jmp QWORD PTR [rip+0xe8a5]        # 10e10 <XCreateWindow@Base>
    256b:	0f 1f 44 00 00       	nop    DWORD PTR [rax+rax*1+0x0]

0000000000002570 <XkbKeycodeToKeysym@plt>:
    2570:	f3 0f 1e fa          	endbr64 
    2574:	f2 ff 25 9d e8 00 00 	bnd jmp QWORD PTR [rip+0xe89d]        # 10e18 <XkbKeycodeToKeysym@Base>
    257b:	0f 1f 44 00 00       	nop    DWORD PTR [rax+rax*1+0x0]

0000000000002580 <XCreateColormap@plt>:
    2580:	f3 0f 1e fa          	endbr64 
    2584:	f2 ff 25 95 e8 00 00 	bnd jmp QWORD PTR [rip+0xe895]        # 10e20 <XCreateColormap@Base>
    258b:	0f 1f 44 00 00       	nop    DWORD PTR [rax+rax*1+0x0]

0000000000002590 <fmaxf@plt>:
    2590:	f3 0f 1e fa          	endbr64 
    2594:	f2 ff 25 8d e8 00 00 	bnd jmp QWORD PTR [rip+0xe88d]        # 10e28 <fmaxf@GLIBC_2.2.5>
    259b:	0f 1f 44 00 00       	nop    DWORD PTR [rax+rax*1+0x0]

00000000000025a0 <XAutoRepeatOn@plt>:
    25a0:	f3 0f 1e fa          	endbr64 
    25a4:	f2 ff 25 85 e8 00 00 	bnd jmp QWORD PTR [rip+0xe885]        # 10e30 <XAutoRepeatOn@Base>
    25ab:	0f 1f 44 00 00       	nop    DWORD PTR [rax+rax*1+0x0]

00000000000025b0 <XOpenDisplay@plt>:
    25b0:	f3 0f 1e fa          	endbr64 
    25b4:	f2 ff 25 7d e8 00 00 	bnd jmp QWORD PTR [rip+0xe87d]        # 10e38 <XOpenDisplay@Base>
    25bb:	0f 1f 44 00 00       	nop    DWORD PTR [rax+rax*1+0x0]

00000000000025c0 <free@plt>:
    25c0:	f3 0f 1e fa          	endbr64 
    25c4:	f2 ff 25 75 e8 00 00 	bnd jmp QWORD PTR [rip+0xe875]        # 10e40 <free@GLIBC_2.2.5>
    25cb:	0f 1f 44 00 00       	nop    DWORD PTR [rax+rax*1+0x0]

00000000000025d0 <XCopyArea@plt>:
    25d0:	f3 0f 1e fa          	endbr64 
    25d4:	f2 ff 25 6d e8 00 00 	bnd jmp QWORD PTR [rip+0xe86d]        # 10e48 <XCopyArea@Base>
    25db:	0f 1f 44 00 00       	nop    DWORD PTR [rax+rax*1+0x0]

00000000000025e0 <strlen@plt>:
    25e0:	f3 0f 1e fa          	endbr64 
    25e4:	f2 ff 25 65 e8 00 00 	bnd jmp QWORD PTR [rip+0xe865]        # 10e50 <strlen@GLIBC_2.2.5>
    25eb:	0f 1f 44 00 00       	nop    DWORD PTR [rax+rax*1+0x0]

00000000000025f0 <XDestroyWindow@plt>:
    25f0:	f3 0f 1e fa          	endbr64 
    25f4:	f2 ff 25 5d e8 00 00 	bnd jmp QWORD PTR [rip+0xe85d]        # 10e58 <XDestroyWindow@Base>
    25fb:	0f 1f 44 00 00       	nop    DWORD PTR [rax+rax*1+0x0]

0000000000002600 <XCloseDisplay@plt>:
    2600:	f3 0f 1e fa          	endbr64 
    2604:	f2 ff 25 55 e8 00 00 	bnd jmp QWORD PTR [rip+0xe855]        # 10e60 <XCloseDisplay@Base>
    260b:	0f 1f 44 00 00       	nop    DWORD PTR [rax+rax*1+0x0]

0000000000002610 <XShmCreateImage@plt>:
    2610:	f3 0f 1e fa          	endbr64 
    2614:	f2 ff 25 4d e8 00 00 	bnd jmp QWORD PTR [rip+0xe84d]        # 10e68 <XShmCreateImage@Base>
    261b:	0f 1f 44 00 00       	nop    DWORD PTR [rax+rax*1+0x0]

0000000000002620 <XFreeGC@plt>:
    2620:	f3 0f 1e fa          	endbr64 
    2624:	f2 ff 25 45 e8 00 00 	bnd jmp QWORD PTR [rip+0xe845]        # 10e70 <XFreeGC@Base>
    262b:	0f 1f 44 00 00       	nop    DWORD PTR [rax+rax*1+0x0]

0000000000002630 <XShmQueryVersion@plt>:
    2630:	f3 0f 1e fa          	endbr64 
    2634:	f2 ff 25 3d e8 00 00 	bnd jmp QWORD PTR [rip+0xe83d]        # 10e78 <XShmQueryVersion@Base>
    263b:	0f 1f 44 00 00       	nop    DWORD PTR [rax+rax*1+0x0]

0000000000002640 <XNextEvent@plt>:
    2640:	f3 0f 1e fa          	endbr64 
    2644:	f2 ff 25 35 e8 00 00 	bnd jmp QWORD PTR [rip+0xe835]        # 10e80 <XNextEvent@Base>
    264b:	0f 1f 44 00 00       	nop    DWORD PTR [rax+rax*1+0x0]

0000000000002650 <XWindowEvent@plt>:
    2650:	f3 0f 1e fa          	endbr64 
    2654:	f2 ff 25 2d e8 00 00 	bnd jmp QWORD PTR [rip+0xe82d]        # 10e88 <XWindowEvent@Base>
    265b:	0f 1f 44 00 00       	nop    DWORD PTR [rax+rax*1+0x0]

0000000000002660 <XSetWMProtocols@plt>:
    2660:	f3 0f 1e fa          	endbr64 
    2664:	f2 ff 25 25 e8 00 00 	bnd jmp QWORD PTR [rip+0xe825]        # 10e90 <XSetWMProtocols@Base>
    266b:	0f 1f 44 00 00       	nop    DWORD PTR [rax+rax*1+0x0]

0000000000002670 <gethostname@plt>:
    2670:	f3 0f 1e fa          	endbr64 
    2674:	f2 ff 25 1d e8 00 00 	bnd jmp QWORD PTR [rip+0xe81d]        # 10e98 <gethostname@GLIBC_2.2.5>
    267b:	0f 1f 44 00 00       	nop    DWORD PTR [rax+rax*1+0x0]

0000000000002680 <fmax@plt>:
    2680:	f3 0f 1e fa          	endbr64 
    2684:	f2 ff 25 15 e8 00 00 	bnd jmp QWORD PTR [rip+0xe815]        # 10ea0 <fmax@GLIBC_2.2.5>
    268b:	0f 1f 44 00 00       	nop    DWORD PTR [rax+rax*1+0x0]

0000000000002690 <XPutBackEvent@plt>:
    2690:	f3 0f 1e fa          	endbr64 
    2694:	f2 ff 25 0d e8 00 00 	bnd jmp QWORD PTR [rip+0xe80d]        # 10ea8 <XPutBackEvent@Base>
    269b:	0f 1f 44 00 00       	nop    DWORD PTR [rax+rax*1+0x0]

00000000000026a0 <XCreateGC@plt>:
    26a0:	f3 0f 1e fa          	endbr64 
    26a4:	f2 ff 25 05 e8 00 00 	bnd jmp QWORD PTR [rip+0xe805]        # 10eb0 <XCreateGC@Base>
    26ab:	0f 1f 44 00 00       	nop    DWORD PTR [rax+rax*1+0x0]

00000000000026b0 <getenv@plt>:
    26b0:	f3 0f 1e fa          	endbr64 
    26b4:	f2 ff 25 fd e7 00 00 	bnd jmp QWORD PTR [rip+0xe7fd]        # 10eb8 <getenv@GLIBC_2.2.5>
    26bb:	0f 1f 44 00 00       	nop    DWORD PTR [rax+rax*1+0x0]

00000000000026c0 <XFlush@plt>:
    26c0:	f3 0f 1e fa          	endbr64 
    26c4:	f2 ff 25 f5 e7 00 00 	bnd jmp QWORD PTR [rip+0xe7f5]        # 10ec0 <XFlush@Base>
    26cb:	0f 1f 44 00 00       	nop    DWORD PTR [rax+rax*1+0x0]

00000000000026d0 <XSync@plt>:
    26d0:	f3 0f 1e fa          	endbr64 
    26d4:	f2 ff 25 ed e7 00 00 	bnd jmp QWORD PTR [rip+0xe7ed]        # 10ec8 <XSync@Base>
    26db:	0f 1f 44 00 00       	nop    DWORD PTR [rax+rax*1+0x0]

00000000000026e0 <__stack_chk_fail@plt>:
    26e0:	f3 0f 1e fa          	endbr64 
    26e4:	f2 ff 25 e5 e7 00 00 	bnd jmp QWORD PTR [rip+0xe7e5]        # 10ed0 <__stack_chk_fail@GLIBC_2.4>
    26eb:	0f 1f 44 00 00       	nop    DWORD PTR [rax+rax*1+0x0]

00000000000026f0 <XPutImage@plt>:
    26f0:	f3 0f 1e fa          	endbr64 
    26f4:	f2 ff 25 dd e7 00 00 	bnd jmp QWORD PTR [rip+0xe7dd]        # 10ed8 <XPutImage@Base>
    26fb:	0f 1f 44 00 00       	nop    DWORD PTR [rax+rax*1+0x0]

0000000000002700 <XShmAttach@plt>:
    2700:	f3 0f 1e fa          	endbr64 
    2704:	f2 ff 25 d5 e7 00 00 	bnd jmp QWORD PTR [rip+0xe7d5]        # 10ee0 <XShmAttach@Base>
    270b:	0f 1f 44 00 00       	nop    DWORD PTR [rax+rax*1+0x0]

0000000000002710 <calloc@plt>:
    2710:	f3 0f 1e fa          	endbr64 
    2714:	f2 ff 25 cd e7 00 00 	bnd jmp QWORD PTR [rip+0xe7cd]        # 10ee8 <calloc@GLIBC_2.2.5>
    271b:	0f 1f 44 00 00       	nop    DWORD PTR [rax+rax*1+0x0]

0000000000002720 <shmget@plt>:
    2720:	f3 0f 1e fa          	endbr64 
    2724:	f2 ff 25 c5 e7 00 00 	bnd jmp QWORD PTR [rip+0xe7c5]        # 10ef0 <shmget@GLIBC_2.2.5>
    272b:	0f 1f 44 00 00       	nop    DWORD PTR [rax+rax*1+0x0]

0000000000002730 <XInternAtom@plt>:
    2730:	f3 0f 1e fa          	endbr64 
    2734:	f2 ff 25 bd e7 00 00 	bnd jmp QWORD PTR [rip+0xe7bd]        # 10ef8 <XInternAtom@Base>
    273b:	0f 1f 44 00 00       	nop    DWORD PTR [rax+rax*1+0x0]

0000000000002740 <XGetVisualInfo@plt>:
    2740:	f3 0f 1e fa          	endbr64 
    2744:	f2 ff 25 b5 e7 00 00 	bnd jmp QWORD PTR [rip+0xe7b5]        # 10f00 <XGetVisualInfo@Base>
    274b:	0f 1f 44 00 00       	nop    DWORD PTR [rax+rax*1+0x0]

0000000000002750 <XGetWindowAttributes@plt>:
    2750:	f3 0f 1e fa          	endbr64 
    2754:	f2 ff 25 ad e7 00 00 	bnd jmp QWORD PTR [rip+0xe7ad]        # 10f08 <XGetWindowAttributes@Base>
    275b:	0f 1f 44 00 00       	nop    DWORD PTR [rax+rax*1+0x0]

0000000000002760 <XShmPutImage@plt>:
    2760:	f3 0f 1e fa          	endbr64 
    2764:	f2 ff 25 a5 e7 00 00 	bnd jmp QWORD PTR [rip+0xe7a5]        # 10f10 <XShmPutImage@Base>
    276b:	0f 1f 44 00 00       	nop    DWORD PTR [rax+rax*1+0x0]

0000000000002770 <XSetErrorHandler@plt>:
    2770:	f3 0f 1e fa          	endbr64 
    2774:	f2 ff 25 9d e7 00 00 	bnd jmp QWORD PTR [rip+0xe79d]        # 10f18 <XSetErrorHandler@Base>
    277b:	0f 1f 44 00 00       	nop    DWORD PTR [rax+rax*1+0x0]

0000000000002780 <XFreePixmap@plt>:
    2780:	f3 0f 1e fa          	endbr64 
    2784:	f2 ff 25 95 e7 00 00 	bnd jmp QWORD PTR [rip+0xe795]        # 10f20 <XFreePixmap@Base>
    278b:	0f 1f 44 00 00       	nop    DWORD PTR [rax+rax*1+0x0]

0000000000002790 <perror@plt>:
    2790:	f3 0f 1e fa          	endbr64 
    2794:	f2 ff 25 8d e7 00 00 	bnd jmp QWORD PTR [rip+0xe78d]        # 10f28 <perror@GLIBC_2.2.5>
    279b:	0f 1f 44 00 00       	nop    DWORD PTR [rax+rax*1+0x0]

00000000000027a0 <shmctl@plt>:
    27a0:	f3 0f 1e fa          	endbr64 
    27a4:	f2 ff 25 85 e7 00 00 	bnd jmp QWORD PTR [rip+0xe785]        # 10f30 <shmctl@GLIBC_2.2.5>
    27ab:	0f 1f 44 00 00       	nop    DWORD PTR [rax+rax*1+0x0]

00000000000027b0 <XCreatePixmap@plt>:
    27b0:	f3 0f 1e fa          	endbr64 
    27b4:	f2 ff 25 7d e7 00 00 	bnd jmp QWORD PTR [rip+0xe77d]        # 10f38 <XCreatePixmap@Base>
    27bb:	0f 1f 44 00 00       	nop    DWORD PTR [rax+rax*1+0x0]

00000000000027c0 <XMapRaised@plt>:
    27c0:	f3 0f 1e fa          	endbr64 
    27c4:	f2 ff 25 75 e7 00 00 	bnd jmp QWORD PTR [rip+0xe775]        # 10f40 <XMapRaised@Base>
    27cb:	0f 1f 44 00 00       	nop    DWORD PTR [rax+rax*1+0x0]

00000000000027d0 <XShmPixmapFormat@plt>:
    27d0:	f3 0f 1e fa          	endbr64 
    27d4:	f2 ff 25 6d e7 00 00 	bnd jmp QWORD PTR [rip+0xe76d]        # 10f48 <XShmPixmapFormat@Base>
    27db:	0f 1f 44 00 00       	nop    DWORD PTR [rax+rax*1+0x0]

00000000000027e0 <write@plt>:
    27e0:	f3 0f 1e fa          	endbr64 
    27e4:	f2 ff 25 65 e7 00 00 	bnd jmp QWORD PTR [rip+0xe765]        # 10f50 <write@GLIBC_2.2.5>
    27eb:	0f 1f 44 00 00       	nop    DWORD PTR [rax+rax*1+0x0]

00000000000027f0 <XSetClipOrigin@plt>:
    27f0:	f3 0f 1e fa          	endbr64 
    27f4:	f2 ff 25 5d e7 00 00 	bnd jmp QWORD PTR [rip+0xe75d]        # 10f58 <XSetClipOrigin@Base>
    27fb:	0f 1f 44 00 00       	nop    DWORD PTR [rax+rax*1+0x0]

0000000000002800 <XShmDetach@plt>:
    2800:	f3 0f 1e fa          	endbr64 
    2804:	f2 ff 25 55 e7 00 00 	bnd jmp QWORD PTR [rip+0xe755]        # 10f60 <XShmDetach@Base>
    280b:	0f 1f 44 00 00       	nop    DWORD PTR [rax+rax*1+0x0]

0000000000002810 <open@plt>:
    2810:	f3 0f 1e fa          	endbr64 
    2814:	f2 ff 25 4d e7 00 00 	bnd jmp QWORD PTR [rip+0xe74d]        # 10f68 <open@GLIBC_2.2.5>
    281b:	0f 1f 44 00 00       	nop    DWORD PTR [rax+rax*1+0x0]

0000000000002820 <XPending@plt>:
    2820:	f3 0f 1e fa          	endbr64 
    2824:	f2 ff 25 45 e7 00 00 	bnd jmp QWORD PTR [rip+0xe745]        # 10f70 <XPending@Base>
    282b:	0f 1f 44 00 00       	nop    DWORD PTR [rax+rax*1+0x0]

0000000000002830 <shmat@plt>:
    2830:	f3 0f 1e fa          	endbr64 
    2834:	f2 ff 25 3d e7 00 00 	bnd jmp QWORD PTR [rip+0xe73d]        # 10f78 <shmat@GLIBC_2.2.5>
    283b:	0f 1f 44 00 00       	nop    DWORD PTR [rax+rax*1+0x0]

0000000000002840 <XChangeWindowAttributes@plt>:
    2840:	f3 0f 1e fa          	endbr64 
    2844:	f2 ff 25 35 e7 00 00 	bnd jmp QWORD PTR [rip+0xe735]        # 10f80 <XChangeWindowAttributes@Base>
    284b:	0f 1f 44 00 00       	nop    DWORD PTR [rax+rax*1+0x0]

0000000000002850 <sqrtf@plt>:
    2850:	f3 0f 1e fa          	endbr64 
    2854:	f2 ff 25 2d e7 00 00 	bnd jmp QWORD PTR [rip+0xe72d]        # 10f88 <sqrtf@GLIBC_2.2.5>
    285b:	0f 1f 44 00 00       	nop    DWORD PTR [rax+rax*1+0x0]

Disassembly of section .text:

0000000000002860 <main>:
    2860:	f3 0f 1e fa          	endbr64 
    2864:	41 56                	push   r14
    2866:	ba 20 01 00 00       	mov    edx,0x120
    286b:	49 89 f6             	mov    r14,rsi
    286e:	31 f6                	xor    esi,esi
    2870:	41 55                	push   r13
    2872:	41 89 fd             	mov    r13d,edi
    2875:	41 54                	push   r12
    2877:	55                   	push   rbp
    2878:	48 81 ec 88 01 00 00 	sub    rsp,0x188
    287f:	4c 8d 64 24 60       	lea    r12,[rsp+0x60]
    2884:	48 8d 6c 24 20       	lea    rbp,[rsp+0x20]
    2889:	c4 c1 f9 6e cc       	vmovq  xmm1,r12
    288e:	4c 89 e7             	mov    rdi,r12
    2891:	c4 e3 f1 22 c5 01    	vpinsrq xmm0,xmm1,rbp,0x1
    2897:	c5 f9 7f 04 24       	vmovdqa XMMWORD PTR [rsp],xmm0
    289c:	e8 ef 32 00 00       	call   5b90 <ft_memset>
    28a1:	48 89 ef             	mov    rdi,rbp
    28a4:	e8 07 11 00 00       	call   39b0 <init_canvas>
    28a9:	48 89 e9             	mov    rcx,rbp
    28ac:	4c 89 e2             	mov    rdx,r12
    28af:	4c 89 f6             	mov    rsi,r14
    28b2:	44 89 ef             	mov    edi,r13d
    28b5:	e8 f6 14 00 00       	call   3db0 <try_parse>
    28ba:	84 c0                	test   al,al
    28bc:	74 74                	je     2932 <main+0xd2>
    28be:	c5 f9 6f 14 24       	vmovdqa xmm2,XMMWORD PTR [rsp]
    28c3:	48 89 ee             	mov    rsi,rbp
    28c6:	4c 89 e7             	mov    rdi,r12
    28c9:	c5 f9 7f 54 24 10    	vmovdqa XMMWORD PTR [rsp+0x10],xmm2
    28cf:	e8 6c 22 00 00       	call   4b40 <render>
    28d4:	4c 8b 44 24 20       	mov    r8,QWORD PTR [rsp+0x20]
    28d9:	48 8d 0d e0 7e 00 00 	lea    rcx,[rip+0x7ee0]        # a7c0 <mlx_loop_end>
    28e0:	31 d2                	xor    edx,edx
    28e2:	48 8b 7c 24 28       	mov    rdi,QWORD PTR [rsp+0x28]
    28e7:	be 11 00 00 00       	mov    esi,0x11
    28ec:	e8 ff 8a 00 00       	call   b3f0 <mlx_hook>
    28f1:	48 8b 7c 24 28       	mov    rdi,QWORD PTR [rsp+0x28]
    28f6:	48 8d 54 24 10       	lea    rdx,[rsp+0x10]
    28fb:	48 8d 35 9e 02 00 00 	lea    rsi,[rip+0x29e]        # 2ba0 <input_key>
    2902:	e8 59 80 00 00       	call   a960 <mlx_key_hook>
    2907:	48 8b 7c 24 20       	mov    rdi,QWORD PTR [rsp+0x20]
    290c:	e8 cf 7e 00 00       	call   a7e0 <mlx_loop>
    2911:	48 89 ef             	mov    rdi,rbp
    2914:	e8 a7 11 00 00       	call   3ac0 <free_canvas>
    2919:	4c 89 e7             	mov    rdi,r12
    291c:	e8 1f 2e 00 00       	call   5740 <destroy_world>
    2921:	31 c0                	xor    eax,eax
    2923:	48 81 c4 88 01 00 00 	add    rsp,0x188
    292a:	5d                   	pop    rbp
    292b:	41 5c                	pop    r12
    292d:	41 5d                	pop    r13
    292f:	41 5e                	pop    r14
    2931:	c3                   	ret    
    2932:	48 8d 3d cb 96 00 00 	lea    rdi,[rip+0x96cb]        # c004 <_IO_stdin_used+0x4>
    2939:	e8 82 fb ff ff       	call   24c0 <puts@plt>
    293e:	48 89 ef             	mov    rdi,rbp
    2941:	e8 7a 11 00 00       	call   3ac0 <free_canvas>
    2946:	b8 01 00 00 00       	mov    eax,0x1
    294b:	eb d6                	jmp    2923 <main+0xc3>
    294d:	0f 1f 00             	nop    DWORD PTR [rax]

0000000000002950 <_start>:
    2950:	f3 0f 1e fa          	endbr64 
    2954:	31 ed                	xor    ebp,ebp
    2956:	49 89 d1             	mov    r9,rdx
    2959:	5e                   	pop    rsi
    295a:	48 89 e2             	mov    rdx,rsp
    295d:	48 83 e4 f0          	and    rsp,0xfffffffffffffff0
    2961:	50                   	push   rax
    2962:	54                   	push   rsp
    2963:	45 31 c0             	xor    r8d,r8d
    2966:	31 c9                	xor    ecx,ecx
    2968:	48 8d 3d f1 fe ff ff 	lea    rdi,[rip+0xfffffffffffffef1]        # 2860 <main>
    296f:	ff 15 7b e6 00 00    	call   QWORD PTR [rip+0xe67b]        # 10ff0 <__libc_start_main@GLIBC_2.34>
    2975:	f4                   	hlt    
    2976:	66 2e 0f 1f 84 00 00 	cs nop WORD PTR [rax+rax*1+0x0]
    297d:	00 00 00 

0000000000002980 <deregister_tm_clones>:
    2980:	48 8d 3d b9 e7 00 00 	lea    rdi,[rip+0xe7b9]        # 11140 <__TMC_END__>
    2987:	48 8d 05 b2 e7 00 00 	lea    rax,[rip+0xe7b2]        # 11140 <__TMC_END__>
    298e:	48 39 f8             	cmp    rax,rdi
    2991:	74 15                	je     29a8 <deregister_tm_clones+0x28>
    2993:	48 8b 05 16 e6 00 00 	mov    rax,QWORD PTR [rip+0xe616]        # 10fb0 <_ITM_deregisterTMCloneTable@Base>
    299a:	48 85 c0             	test   rax,rax
    299d:	74 09                	je     29a8 <deregister_tm_clones+0x28>
    299f:	ff e0                	jmp    rax
    29a1:	0f 1f 80 00 00 00 00 	nop    DWORD PTR [rax+0x0]
    29a8:	c3                   	ret    
    29a9:	0f 1f 80 00 00 00 00 	nop    DWORD PTR [rax+0x0]

00000000000029b0 <register_tm_clones>:
    29b0:	48 8d 3d 89 e7 00 00 	lea    rdi,[rip+0xe789]        # 11140 <__TMC_END__>
    29b7:	48 8d 35 82 e7 00 00 	lea    rsi,[rip+0xe782]        # 11140 <__TMC_END__>
    29be:	48 29 fe             	sub    rsi,rdi
    29c1:	48 89 f0             	mov    rax,rsi
    29c4:	48 c1 ee 3f          	shr    rsi,0x3f
    29c8:	48 c1 f8 03          	sar    rax,0x3
    29cc:	48 01 c6             	add    rsi,rax
    29cf:	48 d1 fe             	sar    rsi,1
    29d2:	74 14                	je     29e8 <register_tm_clones+0x38>
    29d4:	48 8b 05 dd e5 00 00 	mov    rax,QWORD PTR [rip+0xe5dd]        # 10fb8 <_ITM_registerTMCloneTable@Base>
    29db:	48 85 c0             	test   rax,rax
    29de:	74 08                	je     29e8 <register_tm_clones+0x38>
    29e0:	ff e0                	jmp    rax
    29e2:	66 0f 1f 44 00 00    	nop    WORD PTR [rax+rax*1+0x0]
    29e8:	c3                   	ret    
    29e9:	0f 1f 80 00 00 00 00 	nop    DWORD PTR [rax+0x0]

00000000000029f0 <__do_global_dtors_aux>:
    29f0:	f3 0f 1e fa          	endbr64 
    29f4:	80 3d 45 e7 00 00 00 	cmp    BYTE PTR [rip+0xe745],0x0        # 11140 <__TMC_END__>
    29fb:	75 2b                	jne    2a28 <__do_global_dtors_aux+0x38>
    29fd:	55                   	push   rbp
    29fe:	48 83 3d c2 e5 00 00 	cmp    QWORD PTR [rip+0xe5c2],0x0        # 10fc8 <__cxa_finalize@GLIBC_2.2.5>
    2a05:	00 
    2a06:	48 89 e5             	mov    rbp,rsp
    2a09:	74 0c                	je     2a17 <__do_global_dtors_aux+0x27>
    2a0b:	48 8b 3d f6 e5 00 00 	mov    rdi,QWORD PTR [rip+0xe5f6]        # 11008 <__dso_handle>
    2a12:	e8 29 fa ff ff       	call   2440 <__cxa_finalize@plt>
    2a17:	e8 64 ff ff ff       	call   2980 <deregister_tm_clones>
    2a1c:	c6 05 1d e7 00 00 01 	mov    BYTE PTR [rip+0xe71d],0x1        # 11140 <__TMC_END__>
    2a23:	5d                   	pop    rbp
    2a24:	c3                   	ret    
    2a25:	0f 1f 00             	nop    DWORD PTR [rax]
    2a28:	c3                   	ret    
    2a29:	0f 1f 80 00 00 00 00 	nop    DWORD PTR [rax+0x0]

0000000000002a30 <frame_dummy>:
    2a30:	f3 0f 1e fa          	endbr64 
    2a34:	e9 77 ff ff ff       	jmp    29b0 <register_tm_clones>
    2a39:	0f 1f 80 00 00 00 00 	nop    DWORD PTR [rax+0x0]

0000000000002a40 <try_move_shape>:
    2a40:	f3 0f 1e fa          	endbr64 
    2a44:	83 ee 61             	sub    esi,0x61
    2a47:	45 31 c0             	xor    r8d,r8d
    2a4a:	83 fe 19             	cmp    esi,0x19
    2a4d:	76 09                	jbe    2a58 <try_move_shape+0x18>
    2a4f:	44 89 c0             	mov    eax,r8d
    2a52:	c3                   	ret    
    2a53:	0f 1f 44 00 00       	nop    DWORD PTR [rax+rax*1+0x0]
    2a58:	48 c7 c2 f6 ff ba fd 	mov    rdx,0xfffffffffdbafff6
    2a5f:	48 0f a3 f2          	bt     rdx,rsi
    2a63:	72 ea                	jb     2a4f <try_move_shape+0xf>
    2a65:	55                   	push   rbp
    2a66:	48 89 f8             	mov    rax,rdi
    2a69:	bd 0d 00 00 00       	mov    ebp,0xd
    2a6e:	83 fe 16             	cmp    esi,0x16
    2a71:	77 0a                	ja     2a7d <try_move_shape+0x3d>
    2a73:	48 8d 0d 46 96 00 00 	lea    rcx,[rip+0x9646]        # c0c0 <CSWTCH.3>
    2a7a:	8b 2c b1             	mov    ebp,DWORD PTR [rcx+rsi*4]
    2a7d:	48 8b b0 18 01 00 00 	mov    rsi,QWORD PTR [rax+0x118]
    2a84:	48 8d b8 c8 00 00 00 	lea    rdi,[rax+0xc8]
    2a8b:	ff 90 10 01 00 00    	call   QWORD PTR [rax+0x110]
    2a91:	89 ee                	mov    esi,ebp
    2a93:	48 8b 38             	mov    rdi,QWORD PTR [rax]
    2a96:	e8 d5 25 00 00       	call   5070 <move_shape>
    2a9b:	b8 01 00 00 00       	mov    eax,0x1
    2aa0:	5d                   	pop    rbp
    2aa1:	c3                   	ret    
    2aa2:	66 66 2e 0f 1f 84 00 	data16 cs nop WORD PTR [rax+rax*1+0x0]
    2aa9:	00 00 00 00 
    2aad:	0f 1f 00             	nop    DWORD PTR [rax]

0000000000002ab0 <try_rotate_shape>:
    2ab0:	f3 0f 1e fa          	endbr64 
    2ab4:	8d 56 9e             	lea    edx,[rsi-0x62]
    2ab7:	45 31 c0             	xor    r8d,r8d
    2aba:	83 fa 14             	cmp    edx,0x14
    2abd:	77 59                	ja     2b18 <try_rotate_shape+0x68>
    2abf:	48 c7 c1 8e ef ef ff 	mov    rcx,0xffffffffffefef8e
    2ac6:	48 0f a3 d1          	bt     rcx,rdx
    2aca:	72 4c                	jb     2b18 <try_rotate_shape+0x68>
    2acc:	83 ee 66             	sub    esi,0x66
    2acf:	55                   	push   rbp
    2ad0:	48 89 f8             	mov    rax,rdi
    2ad3:	bd 02 00 00 00       	mov    ebp,0x2
    2ad8:	83 fe 10             	cmp    esi,0x10
    2adb:	76 2b                	jbe    2b08 <try_rotate_shape+0x58>
    2add:	48 8b b0 18 01 00 00 	mov    rsi,QWORD PTR [rax+0x118]
    2ae4:	48 8d b8 c8 00 00 00 	lea    rdi,[rax+0xc8]
    2aeb:	ff 90 10 01 00 00    	call   QWORD PTR [rax+0x110]
    2af1:	89 ee                	mov    esi,ebp
    2af3:	48 8b 38             	mov    rdi,QWORD PTR [rax]
    2af6:	e8 35 26 00 00       	call   5130 <rotate_shape>
    2afb:	b8 01 00 00 00       	mov    eax,0x1
    2b00:	5d                   	pop    rbp
    2b01:	c3                   	ret    
    2b02:	66 0f 1f 44 00 00    	nop    WORD PTR [rax+rax*1+0x0]
    2b08:	48 8d 3d 51 95 00 00 	lea    rdi,[rip+0x9551]        # c060 <CSWTCH.5>
    2b0f:	8b 2c b7             	mov    ebp,DWORD PTR [rdi+rsi*4]
    2b12:	eb c9                	jmp    2add <try_rotate_shape+0x2d>
    2b14:	0f 1f 40 00          	nop    DWORD PTR [rax+0x0]
    2b18:	44 89 c0             	mov    eax,r8d
    2b1b:	c3                   	ret    
    2b1c:	0f 1f 40 00          	nop    DWORD PTR [rax+0x0]

0000000000002b20 <try_update_shape_scale>:
    2b20:	f3 0f 1e fa          	endbr64 
    2b24:	55                   	push   rbp
    2b25:	48 89 f8             	mov    rax,rdi
    2b28:	8d 56 97             	lea    edx,[rsi-0x69]
    2b2b:	53                   	push   rbx
    2b2c:	48 83 ec 08          	sub    rsp,0x8
    2b30:	83 fe 75             	cmp    esi,0x75
    2b33:	74 53                	je     2b88 <try_update_shape_scale+0x68>
    2b35:	31 f6                	xor    esi,esi
    2b37:	83 fa 02             	cmp    edx,0x2
    2b3a:	77 3e                	ja     2b7a <try_update_shape_scale+0x5a>
    2b3c:	48 8d 0d dd 94 00 00 	lea    rcx,[rip+0x94dd]        # c020 <CSWTCH.7>
    2b43:	8b 2c 91             	mov    ebp,DWORD PTR [rcx+rdx*4]
    2b46:	48 8b b0 18 01 00 00 	mov    rsi,QWORD PTR [rax+0x118]
    2b4d:	48 8d b8 c8 00 00 00 	lea    rdi,[rax+0xc8]
    2b54:	ff 90 10 01 00 00    	call   QWORD PTR [rax+0x110]
    2b5a:	89 ee                	mov    esi,ebp
    2b5c:	4c 8b 00             	mov    r8,QWORD PTR [rax]
    2b5f:	48 89 c3             	mov    rbx,rax
    2b62:	4c 89 c7             	mov    rdi,r8
    2b65:	41 ff 50 68          	call   QWORD PTR [r8+0x68]
    2b69:	4c 8b 0b             	mov    r9,QWORD PTR [rbx]
    2b6c:	89 ee                	mov    esi,ebp
    2b6e:	4c 89 cf             	mov    rdi,r9
    2b71:	41 ff 51 60          	call   QWORD PTR [r9+0x60]
    2b75:	be 01 00 00 00       	mov    esi,0x1
    2b7a:	48 83 c4 08          	add    rsp,0x8
    2b7e:	89 f0                	mov    eax,esi
    2b80:	5b                   	pop    rbx
    2b81:	5d                   	pop    rbp
    2b82:	c3                   	ret    
    2b83:	0f 1f 44 00 00       	nop    DWORD PTR [rax+rax*1+0x0]
    2b88:	bd 0b 00 00 00       	mov    ebp,0xb
    2b8d:	83 fa 0c             	cmp    edx,0xc
    2b90:	77 b4                	ja     2b46 <try_update_shape_scale+0x26>
    2b92:	eb a8                	jmp    2b3c <try_update_shape_scale+0x1c>
    2b94:	66 66 2e 0f 1f 84 00 	data16 cs nop WORD PTR [rax+rax*1+0x0]
    2b9b:	00 00 00 00 
    2b9f:	90                   	nop

0000000000002ba0 <input_key>:
    2ba0:	f3 0f 1e fa          	endbr64 
    2ba4:	41 54                	push   r12
    2ba6:	55                   	push   rbp
    2ba7:	89 fd                	mov    ebp,edi
    2ba9:	53                   	push   rbx
    2baa:	48 89 f3             	mov    rbx,rsi
    2bad:	81 ff 1b ff 00 00    	cmp    edi,0xff1b
    2bb3:	0f 84 d7 00 00 00    	je     2c90 <input_key+0xf0>
    2bb9:	89 f8                	mov    eax,edi
    2bbb:	4c 8b 06             	mov    r8,QWORD PTR [rsi]
    2bbe:	83 e0 fb             	and    eax,0xfffffffb
    2bc1:	83 f8 73             	cmp    eax,0x73
    2bc4:	75 5a                	jne    2c20 <input_key+0x80>
    2bc6:	83 ed 61             	sub    ebp,0x61
    2bc9:	41 bc 0d 00 00 00    	mov    r12d,0xd
    2bcf:	83 fd 16             	cmp    ebp,0x16
    2bd2:	76 3c                	jbe    2c10 <input_key+0x70>
    2bd4:	49 8b b0 18 01 00 00 	mov    rsi,QWORD PTR [r8+0x118]
    2bdb:	49 8d b8 c8 00 00 00 	lea    rdi,[r8+0xc8]
    2be2:	41 ff 90 10 01 00 00 	call   QWORD PTR [r8+0x110]
    2be9:	44 89 e6             	mov    esi,r12d
    2bec:	48 8b 38             	mov    rdi,QWORD PTR [rax]
    2bef:	e8 7c 24 00 00       	call   5070 <move_shape>
    2bf4:	4c 8b 23             	mov    r12,QWORD PTR [rbx]
    2bf7:	48 8b 73 08          	mov    rsi,QWORD PTR [rbx+0x8]
    2bfb:	4c 89 e7             	mov    rdi,r12
    2bfe:	e8 3d 1f 00 00       	call   4b40 <render>
    2c03:	5b                   	pop    rbx
    2c04:	31 c0                	xor    eax,eax
    2c06:	5d                   	pop    rbp
    2c07:	41 5c                	pop    r12
    2c09:	c3                   	ret    
    2c0a:	66 0f 1f 44 00 00    	nop    WORD PTR [rax+rax*1+0x0]
    2c10:	48 8d 3d a9 94 00 00 	lea    rdi,[rip+0x94a9]        # c0c0 <CSWTCH.3>
    2c17:	44 8b 24 af          	mov    r12d,DWORD PTR [rdi+rbp*4]
    2c1b:	eb b7                	jmp    2bd4 <input_key+0x34>
    2c1d:	0f 1f 00             	nop    DWORD PTR [rax]
    2c20:	83 ff 61             	cmp    edi,0x61
    2c23:	74 a1                	je     2bc6 <input_key+0x26>
    2c25:	83 ff 64             	cmp    edi,0x64
    2c28:	74 9c                	je     2bc6 <input_key+0x26>
    2c2a:	83 ff 71             	cmp    edi,0x71
    2c2d:	74 97                	je     2bc6 <input_key+0x26>
    2c2f:	83 ff 7a             	cmp    edi,0x7a
    2c32:	74 92                	je     2bc6 <input_key+0x26>
    2c34:	8d 4f 9e             	lea    ecx,[rdi-0x62]
    2c37:	83 f9 14             	cmp    ecx,0x14
    2c3a:	77 63                	ja     2c9f <input_key+0xff>
    2c3c:	48 c7 c2 8e ef ef ff 	mov    rdx,0xffffffffffefef8e
    2c43:	48 0f a3 ca          	bt     rdx,rcx
    2c47:	0f 82 b3 00 00 00    	jb     2d00 <input_key+0x160>
    2c4d:	83 ed 66             	sub    ebp,0x66
    2c50:	41 bc 02 00 00 00    	mov    r12d,0x2
    2c56:	83 fd 10             	cmp    ebp,0x10
    2c59:	77 0b                	ja     2c66 <input_key+0xc6>
    2c5b:	48 8d 35 fe 93 00 00 	lea    rsi,[rip+0x93fe]        # c060 <CSWTCH.5>
    2c62:	44 8b 24 ae          	mov    r12d,DWORD PTR [rsi+rbp*4]
    2c66:	49 8b b0 18 01 00 00 	mov    rsi,QWORD PTR [r8+0x118]
    2c6d:	49 8d b8 c8 00 00 00 	lea    rdi,[r8+0xc8]
    2c74:	41 ff 90 10 01 00 00 	call   QWORD PTR [r8+0x110]
    2c7b:	44 89 e6             	mov    esi,r12d
    2c7e:	48 8b 38             	mov    rdi,QWORD PTR [rax]
    2c81:	e8 aa 24 00 00       	call   5130 <rotate_shape>
    2c86:	4c 8b 23             	mov    r12,QWORD PTR [rbx]
    2c89:	e9 69 ff ff ff       	jmp    2bf7 <input_key+0x57>
    2c8e:	66 90                	xchg   ax,ax
    2c90:	4c 8b 4e 08          	mov    r9,QWORD PTR [rsi+0x8]
    2c94:	49 8b 39             	mov    rdi,QWORD PTR [r9]
    2c97:	e8 24 7b 00 00       	call   a7c0 <mlx_loop_end>
    2c9c:	4c 8b 03             	mov    r8,QWORD PTR [rbx]
    2c9f:	89 ee                	mov    esi,ebp
    2ca1:	4c 89 c7             	mov    rdi,r8
    2ca4:	e8 77 fe ff ff       	call   2b20 <try_update_shape_scale>
    2ca9:	84 c0                	test   al,al
    2cab:	74 0b                	je     2cb8 <input_key+0x118>
    2cad:	4c 8b 23             	mov    r12,QWORD PTR [rbx]
    2cb0:	e9 42 ff ff ff       	jmp    2bf7 <input_key+0x57>
    2cb5:	0f 1f 00             	nop    DWORD PTR [rax]
    2cb8:	4c 8b 23             	mov    r12,QWORD PTR [rbx]
    2cbb:	83 fd 2c             	cmp    ebp,0x2c
    2cbe:	74 58                	je     2d18 <input_key+0x178>
    2cc0:	83 fd 2e             	cmp    ebp,0x2e
    2cc3:	0f 85 3a ff ff ff    	jne    2c03 <input_key+0x63>
    2cc9:	4d 8b 94 24 18 01 00 	mov    r10,QWORD PTR [r12+0x118]
    2cd0:	00 
    2cd1:	49 8d bc 24 c8 00 00 	lea    rdi,[r12+0xc8]
    2cd8:	00 
    2cd9:	49 8d 6a 01          	lea    rbp,[r10+0x1]
    2cdd:	e8 ce 41 00 00       	call   6eb0 <get_count_in_list>
    2ce2:	31 d2                	xor    edx,edx
    2ce4:	49 89 c3             	mov    r11,rax
    2ce7:	48 89 e8             	mov    rax,rbp
    2cea:	49 f7 f3             	div    r11
    2ced:	49 89 94 24 18 01 00 	mov    QWORD PTR [r12+0x118],rdx
    2cf4:	00 
    2cf5:	eb b6                	jmp    2cad <input_key+0x10d>
    2cf7:	66 0f 1f 84 00 00 00 	nop    WORD PTR [rax+rax*1+0x0]
    2cfe:	00 00 
    2d00:	89 fe                	mov    esi,edi
    2d02:	4c 89 c7             	mov    rdi,r8
    2d05:	e8 16 fe ff ff       	call   2b20 <try_update_shape_scale>
    2d0a:	84 c0                	test   al,al
    2d0c:	75 9f                	jne    2cad <input_key+0x10d>
    2d0e:	e9 f0 fe ff ff       	jmp    2c03 <input_key+0x63>
    2d13:	0f 1f 44 00 00       	nop    DWORD PTR [rax+rax*1+0x0]
    2d18:	4d 8b 84 24 18 01 00 	mov    r8,QWORD PTR [r12+0x118]
    2d1f:	00 
    2d20:	4d 85 c0             	test   r8,r8
    2d23:	74 11                	je     2d36 <input_key+0x196>
    2d25:	49 83 e8 01          	sub    r8,0x1
    2d29:	4d 89 84 24 18 01 00 	mov    QWORD PTR [r12+0x118],r8
    2d30:	00 
    2d31:	e9 c1 fe ff ff       	jmp    2bf7 <input_key+0x57>
    2d36:	49 8d bc 24 c8 00 00 	lea    rdi,[r12+0xc8]
    2d3d:	00 
    2d3e:	e8 6d 41 00 00       	call   6eb0 <get_count_in_list>
    2d43:	48 83 e8 01          	sub    rax,0x1
    2d47:	49 89 84 24 18 01 00 	mov    QWORD PTR [r12+0x118],rax
    2d4e:	00 
    2d4f:	4c 8b 23             	mov    r12,QWORD PTR [rbx]
    2d52:	e9 a0 fe ff ff       	jmp    2bf7 <input_key+0x57>
    2d57:	66 0f 1f 84 00 00 00 	nop    WORD PTR [rax+rax*1+0x0]
    2d5e:	00 00 

0000000000002d60 <try_change_shape>:
    2d60:	f3 0f 1e fa          	endbr64 
    2d64:	55                   	push   rbp
    2d65:	53                   	push   rbx
    2d66:	48 89 fb             	mov    rbx,rdi
    2d69:	48 83 ec 08          	sub    rsp,0x8
    2d6d:	83 fe 2c             	cmp    esi,0x2c
    2d70:	74 0e                	je     2d80 <try_change_shape+0x20>
    2d72:	31 c0                	xor    eax,eax
    2d74:	83 fe 2e             	cmp    esi,0x2e
    2d77:	74 57                	je     2dd0 <try_change_shape+0x70>
    2d79:	48 83 c4 08          	add    rsp,0x8
    2d7d:	5b                   	pop    rbx
    2d7e:	5d                   	pop    rbp
    2d7f:	c3                   	ret    
    2d80:	48 8b 8f 18 01 00 00 	mov    rcx,QWORD PTR [rdi+0x118]
    2d87:	48 85 c9             	test   rcx,rcx
    2d8a:	74 1c                	je     2da8 <try_change_shape+0x48>
    2d8c:	48 83 e9 01          	sub    rcx,0x1
    2d90:	b8 01 00 00 00       	mov    eax,0x1
    2d95:	48 89 8f 18 01 00 00 	mov    QWORD PTR [rdi+0x118],rcx
    2d9c:	48 83 c4 08          	add    rsp,0x8
    2da0:	5b                   	pop    rbx
    2da1:	5d                   	pop    rbp
    2da2:	c3                   	ret    
    2da3:	0f 1f 44 00 00       	nop    DWORD PTR [rax+rax*1+0x0]
    2da8:	48 8d bf c8 00 00 00 	lea    rdi,[rdi+0xc8]
    2daf:	e8 fc 40 00 00       	call   6eb0 <get_count_in_list>
    2db4:	48 83 e8 01          	sub    rax,0x1
    2db8:	48 89 83 18 01 00 00 	mov    QWORD PTR [rbx+0x118],rax
    2dbf:	b8 01 00 00 00       	mov    eax,0x1
    2dc4:	eb b3                	jmp    2d79 <try_change_shape+0x19>
    2dc6:	66 2e 0f 1f 84 00 00 	cs nop WORD PTR [rax+rax*1+0x0]
    2dcd:	00 00 00 
    2dd0:	48 8b 87 18 01 00 00 	mov    rax,QWORD PTR [rdi+0x118]
    2dd7:	48 8d bf c8 00 00 00 	lea    rdi,[rdi+0xc8]
    2dde:	48 8d 68 01          	lea    rbp,[rax+0x1]
    2de2:	e8 c9 40 00 00       	call   6eb0 <get_count_in_list>
    2de7:	31 d2                	xor    edx,edx
    2de9:	49 89 c0             	mov    r8,rax
    2dec:	48 89 e8             	mov    rax,rbp
    2def:	49 f7 f0             	div    r8
    2df2:	b8 01 00 00 00       	mov    eax,0x1
    2df7:	48 89 93 18 01 00 00 	mov    QWORD PTR [rbx+0x118],rdx
    2dfe:	e9 76 ff ff ff       	jmp    2d79 <try_change_shape+0x19>
    2e03:	66 2e 0f 1f 84 00 00 	cs nop WORD PTR [rax+rax*1+0x0]
    2e0a:	00 00 00 
    2e0d:	0f 1f 00             	nop    DWORD PTR [rax]

0000000000002e10 <init_camera>:
    2e10:	f3 0f 1e fa          	endbr64 
    2e14:	4c 8d 54 24 08       	lea    r10,[rsp+0x8]
    2e19:	48 83 e4 e0          	and    rsp,0xffffffffffffffe0
    2e1d:	41 ff 72 f8          	push   QWORD PTR [r10-0x8]
    2e21:	55                   	push   rbp
    2e22:	48 89 e5             	mov    rbp,rsp
    2e25:	41 54                	push   r12
    2e27:	49 89 f4             	mov    r12,rsi
    2e2a:	41 52                	push   r10
    2e2c:	53                   	push   rbx
    2e2d:	48 89 fb             	mov    rbx,rdi
    2e30:	48 83 ec 58          	sub    rsp,0x58
    2e34:	c5 fa 7e 4f 38       	vmovq  xmm1,QWORD PTR [rdi+0x38]
    2e39:	c5 fa 7e 47 30       	vmovq  xmm0,QWORD PTR [rdi+0x30]
    2e3e:	e8 6d 41 00 00       	call   6fb0 <normalize_vector3>
    2e43:	48 8d 7d 90          	lea    rdi,[rbp-0x70]
    2e47:	c5 f9 d6 4b 38       	vmovq  QWORD PTR [rbx+0x38],xmm1
    2e4c:	c5 f9 d6 43 30       	vmovq  QWORD PTR [rbx+0x30],xmm0
    2e51:	e8 9a 23 00 00       	call   51f0 <get_local_basis>
    2e56:	49 8b 44 24 30       	mov    rax,QWORD PTR [r12+0x30]
    2e5b:	c5 f9 6f 5d 90       	vmovdqa xmm3,XMMWORD PTR [rbp-0x70]
    2e60:	c5 e8 57 d2          	vxorps xmm2,xmm2,xmm2
    2e64:	c5 f9 6f 65 a0       	vmovdqa xmm4,XMMWORD PTR [rbp-0x60]
    2e69:	c5 f9 6f 6d b0       	vmovdqa xmm5,XMMWORD PTR [rbp-0x50]
    2e6e:	48 85 c0             	test   rax,rax
    2e71:	c5 fa 10 0d a3 92 00 	vmovss xmm1,DWORD PTR [rip+0x92a3]        # c11c <CSWTCH.3+0x5c>
    2e78:	00 
    2e79:	c5 f9 7f 5b 10       	vmovdqa XMMWORD PTR [rbx+0x10],xmm3
    2e7e:	c5 f2 59 73 40       	vmulss xmm6,xmm1,DWORD PTR [rbx+0x40]
    2e83:	c5 f9 7f 63 20       	vmovdqa XMMWORD PTR [rbx+0x20],xmm4
    2e88:	c5 f9 7f 6b 30       	vmovdqa XMMWORD PTR [rbx+0x30],xmm5
    2e8d:	78 41                	js     2ed0 <init_camera+0xc0>
    2e8f:	49 8b 4c 24 28       	mov    rcx,QWORD PTR [r12+0x28]
    2e94:	c4 e1 ea 2a f8       	vcvtsi2ss xmm7,xmm2,rax
    2e99:	48 85 c9             	test   rcx,rcx
    2e9c:	78 51                	js     2eef <init_camera+0xdf>
    2e9e:	c4 61 ea 2a c9       	vcvtsi2ss xmm9,xmm2,rcx
    2ea3:	c4 41 42 5e d1       	vdivss xmm10,xmm7,xmm9
    2ea8:	c6 43 50 01          	mov    BYTE PTR [rbx+0x50],0x1
    2eac:	c5 2a 59 de          	vmulss xmm11,xmm10,xmm6
    2eb0:	c4 41 48 14 e3       	vunpcklps xmm12,xmm6,xmm11
    2eb5:	c5 78 13 63 44       	vmovlps QWORD PTR [rbx+0x44],xmm12
    2eba:	48 83 c4 58          	add    rsp,0x58
    2ebe:	5b                   	pop    rbx
    2ebf:	5f                   	pop    rdi
    2ec0:	41 5c                	pop    r12
    2ec2:	5d                   	pop    rbp
    2ec3:	48 8d 67 f8          	lea    rsp,[rdi-0x8]
    2ec7:	c3                   	ret    
    2ec8:	0f 1f 84 00 00 00 00 	nop    DWORD PTR [rax+rax*1+0x0]
    2ecf:	00 
    2ed0:	48 89 c2             	mov    rdx,rax
    2ed3:	83 e0 01             	and    eax,0x1
    2ed6:	49 8b 4c 24 28       	mov    rcx,QWORD PTR [r12+0x28]
    2edb:	48 d1 ea             	shr    rdx,1
    2ede:	48 09 d0             	or     rax,rdx
    2ee1:	c4 e1 ea 2a c0       	vcvtsi2ss xmm0,xmm2,rax
    2ee6:	c5 fa 58 f8          	vaddss xmm7,xmm0,xmm0
    2eea:	48 85 c9             	test   rcx,rcx
    2eed:	79 af                	jns    2e9e <init_camera+0x8e>
    2eef:	48 89 ce             	mov    rsi,rcx
    2ef2:	83 e1 01             	and    ecx,0x1
    2ef5:	48 d1 ee             	shr    rsi,1
    2ef8:	48 09 f1             	or     rcx,rsi
    2efb:	c4 61 ea 2a c1       	vcvtsi2ss xmm8,xmm2,rcx
    2f00:	c4 41 3a 58 c8       	vaddss xmm9,xmm8,xmm8
    2f05:	eb 9c                	jmp    2ea3 <init_camera+0x93>
    2f07:	66 0f 1f 84 00 00 00 	nop    WORD PTR [rax+rax*1+0x0]
    2f0e:	00 00 

0000000000002f10 <is_hit_up_cap>:
    2f10:	f3 0f 1e fa          	endbr64 
    2f14:	41 56                	push   r14
    2f16:	55                   	push   rbp
    2f17:	48 89 f5             	mov    rbp,rsi
    2f1a:	53                   	push   rbx
    2f1b:	48 89 fb             	mov    rbx,rdi
    2f1e:	48 83 ec 50          	sub    rsp,0x50
    2f22:	c5 fa 7e 54 24 70    	vmovq  xmm2,QWORD PTR [rsp+0x70]
    2f28:	c5 fa 7e 5c 24 78    	vmovq  xmm3,QWORD PTR [rsp+0x78]
    2f2e:	c5 f9 d6 44 24 10    	vmovq  QWORD PTR [rsp+0x10],xmm0
    2f34:	c5 f9 d6 4c 24 18    	vmovq  QWORD PTR [rsp+0x18],xmm1
    2f3a:	e8 a1 41 00 00       	call   70e0 <subtract_vector3>
    2f3f:	c5 f9 6f d0          	vmovdqa xmm2,xmm0
    2f43:	c5 f9 6f d9          	vmovdqa xmm3,xmm1
    2f47:	c5 fa 7e 43 40       	vmovq  xmm0,QWORD PTR [rbx+0x40]
    2f4c:	c5 fa 7e 4b 48       	vmovq  xmm1,QWORD PTR [rbx+0x48]
    2f51:	e8 4a 42 00 00       	call   71a0 <dot_product3x3>
    2f56:	c5 fa 7e 4b 48       	vmovq  xmm1,QWORD PTR [rbx+0x48]
    2f5b:	c5 fa 7e 94 24 80 00 	vmovq  xmm2,QWORD PTR [rsp+0x80]
    2f62:	00 00 
    2f64:	c5 fa 7e 9c 24 88 00 	vmovq  xmm3,QWORD PTR [rsp+0x88]
    2f6b:	00 00 
    2f6d:	c4 c1 79 7e c6       	vmovd  r14d,xmm0
    2f72:	c5 fa 7e 43 40       	vmovq  xmm0,QWORD PTR [rbx+0x40]
    2f77:	e8 24 42 00 00       	call   71a0 <dot_product3x3>
    2f7c:	c5 f0 57 c9          	vxorps xmm1,xmm1,xmm1
    2f80:	c5 f8 2e c1          	vucomiss xmm0,xmm1
    2f84:	7a 06                	jp     2f8c <is_hit_up_cap+0x7c>
    2f86:	0f 84 d4 00 00 00    	je     3060 <is_hit_up_cap+0x150>
    2f8c:	c4 c1 79 6e ee       	vmovd  xmm5,r14d
    2f91:	c5 d2 5e e0          	vdivss xmm4,xmm5,xmm0
    2f95:	c5 f8 2f cc          	vcomiss xmm1,xmm4
    2f99:	0f 83 c1 00 00 00    	jae    3060 <is_hit_up_cap+0x150>
    2f9f:	c5 f8 2f 65 30       	vcomiss xmm4,DWORD PTR [rbp+0x30]
    2fa4:	0f 83 b6 00 00 00    	jae    3060 <is_hit_up_cap+0x150>
    2faa:	ff b4 24 88 00 00 00 	push   QWORD PTR [rsp+0x88]
    2fb1:	c5 f8 28 c4          	vmovaps xmm0,xmm4
    2fb5:	ff b4 24 88 00 00 00 	push   QWORD PTR [rsp+0x88]
    2fbc:	ff b4 24 88 00 00 00 	push   QWORD PTR [rsp+0x88]
    2fc3:	ff b4 24 88 00 00 00 	push   QWORD PTR [rsp+0x88]
    2fca:	c5 fa 11 64 24 2c    	vmovss DWORD PTR [rsp+0x2c],xmm4
    2fd0:	e8 eb 17 00 00       	call   47c0 <get_point_in_ray>
    2fd5:	c5 f9 d6 44 24 40    	vmovq  QWORD PTR [rsp+0x40],xmm0
    2fdb:	c5 f9 d6 4c 24 48    	vmovq  QWORD PTR [rsp+0x48],xmm1
    2fe1:	c5 fa 7e 54 24 30    	vmovq  xmm2,QWORD PTR [rsp+0x30]
    2fe7:	c5 fa 7e 5c 24 38    	vmovq  xmm3,QWORD PTR [rsp+0x38]
    2fed:	48 83 c4 20          	add    rsp,0x20
    2ff1:	e8 ea 40 00 00       	call   70e0 <subtract_vector3>
    2ff6:	c5 f9 6f d0          	vmovdqa xmm2,xmm0
    2ffa:	c5 f9 6f d9          	vmovdqa xmm3,xmm1
    2ffe:	e8 9d 41 00 00       	call   71a0 <dot_product3x3>
    3003:	c5 f8 28 d0          	vmovaps xmm2,xmm0
    3007:	c5 fa 10 05 0d 91 00 	vmovss xmm0,DWORD PTR [rip+0x910d]        # c11c <CSWTCH.3+0x5c>
    300e:	00 
    300f:	c5 fa 59 5b 70       	vmulss xmm3,xmm0,DWORD PTR [rbx+0x70]
    3014:	c5 e2 59 f3          	vmulss xmm6,xmm3,xmm3
    3018:	c5 f8 2f d6          	vcomiss xmm2,xmm6
    301c:	73 42                	jae    3060 <is_hit_up_cap+0x150>
    301e:	c5 79 6f 4b 40       	vmovdqa xmm9,XMMWORD PTR [rbx+0x40]
    3023:	c5 79 6f 53 10       	vmovdqa xmm10,XMMWORD PTR [rbx+0x10]
    3028:	48 89 5d 38          	mov    QWORD PTR [rbp+0x38],rbx
    302c:	b8 01 00 00 00       	mov    eax,0x1
    3031:	c5 fa 10 7c 24 0c    	vmovss xmm7,DWORD PTR [rsp+0xc]
    3037:	c5 79 6f 44 24 20    	vmovdqa xmm8,XMMWORD PTR [rsp+0x20]
    303d:	c5 79 7f 4d 10       	vmovdqa XMMWORD PTR [rbp+0x10],xmm9
    3042:	c5 fa 11 7d 30       	vmovss DWORD PTR [rbp+0x30],xmm7
    3047:	c5 79 7f 45 00       	vmovdqa XMMWORD PTR [rbp+0x0],xmm8
    304c:	c5 79 7f 55 20       	vmovdqa XMMWORD PTR [rbp+0x20],xmm10
    3051:	48 83 c4 50          	add    rsp,0x50
    3055:	5b                   	pop    rbx
    3056:	5d                   	pop    rbp
    3057:	41 5e                	pop    r14
    3059:	c3                   	ret    
    305a:	66 0f 1f 44 00 00    	nop    WORD PTR [rax+rax*1+0x0]
    3060:	48 83 c4 50          	add    rsp,0x50
    3064:	31 c0                	xor    eax,eax
    3066:	5b                   	pop    rbx
    3067:	5d                   	pop    rbp
    3068:	41 5e                	pop    r14
    306a:	c3                   	ret    
    306b:	0f 1f 44 00 00       	nop    DWORD PTR [rax+rax*1+0x0]

0000000000003070 <is_hit_down_cap>:
    3070:	f3 0f 1e fa          	endbr64 
    3074:	41 56                	push   r14
    3076:	55                   	push   rbp
    3077:	48 89 f5             	mov    rbp,rsi
    307a:	53                   	push   rbx
    307b:	48 89 fb             	mov    rbx,rdi
    307e:	48 83 ec 50          	sub    rsp,0x50
    3082:	c5 fa 7e 54 24 70    	vmovq  xmm2,QWORD PTR [rsp+0x70]
    3088:	c5 fa 7e 5c 24 78    	vmovq  xmm3,QWORD PTR [rsp+0x78]
    308e:	c5 f9 d6 44 24 10    	vmovq  QWORD PTR [rsp+0x10],xmm0
    3094:	c5 f9 d6 4c 24 18    	vmovq  QWORD PTR [rsp+0x18],xmm1
    309a:	e8 41 40 00 00       	call   70e0 <subtract_vector3>
    309f:	c5 f9 6f d0          	vmovdqa xmm2,xmm0
    30a3:	c5 f9 6f d9          	vmovdqa xmm3,xmm1
    30a7:	c5 fa 7e 43 40       	vmovq  xmm0,QWORD PTR [rbx+0x40]
    30ac:	c5 fa 7e 4b 48       	vmovq  xmm1,QWORD PTR [rbx+0x48]
    30b1:	e8 ea 40 00 00       	call   71a0 <dot_product3x3>
    30b6:	c5 fa 7e 4b 48       	vmovq  xmm1,QWORD PTR [rbx+0x48]
    30bb:	c5 fa 7e 94 24 80 00 	vmovq  xmm2,QWORD PTR [rsp+0x80]
    30c2:	00 00 
    30c4:	c5 fa 7e 9c 24 88 00 	vmovq  xmm3,QWORD PTR [rsp+0x88]
    30cb:	00 00 
    30cd:	c4 c1 79 7e c6       	vmovd  r14d,xmm0
    30d2:	c5 fa 7e 43 40       	vmovq  xmm0,QWORD PTR [rbx+0x40]
    30d7:	e8 c4 40 00 00       	call   71a0 <dot_product3x3>
    30dc:	c5 f0 57 c9          	vxorps xmm1,xmm1,xmm1
    30e0:	c5 f8 2e c1          	vucomiss xmm0,xmm1
    30e4:	7a 06                	jp     30ec <is_hit_down_cap+0x7c>
    30e6:	0f 84 8a 00 00 00    	je     3176 <is_hit_down_cap+0x106>
    30ec:	c4 c1 79 6e ee       	vmovd  xmm5,r14d
    30f1:	c5 d2 5e e0          	vdivss xmm4,xmm5,xmm0
    30f5:	c5 f8 2f cc          	vcomiss xmm1,xmm4
    30f9:	73 7b                	jae    3176 <is_hit_down_cap+0x106>
    30fb:	c5 f8 2f 65 30       	vcomiss xmm4,DWORD PTR [rbp+0x30]
    3100:	73 74                	jae    3176 <is_hit_down_cap+0x106>
    3102:	ff b4 24 88 00 00 00 	push   QWORD PTR [rsp+0x88]
    3109:	c5 f8 28 c4          	vmovaps xmm0,xmm4
    310d:	ff b4 24 88 00 00 00 	push   QWORD PTR [rsp+0x88]
    3114:	ff b4 24 88 00 00 00 	push   QWORD PTR [rsp+0x88]
    311b:	ff b4 24 88 00 00 00 	push   QWORD PTR [rsp+0x88]
    3122:	c5 fa 11 64 24 2c    	vmovss DWORD PTR [rsp+0x2c],xmm4
    3128:	e8 93 16 00 00       	call   47c0 <get_point_in_ray>
    312d:	c5 f9 d6 44 24 40    	vmovq  QWORD PTR [rsp+0x40],xmm0
    3133:	c5 f9 d6 4c 24 48    	vmovq  QWORD PTR [rsp+0x48],xmm1
    3139:	c5 fa 7e 54 24 30    	vmovq  xmm2,QWORD PTR [rsp+0x30]
    313f:	c5 fa 7e 5c 24 38    	vmovq  xmm3,QWORD PTR [rsp+0x38]
    3145:	48 83 c4 20          	add    rsp,0x20
    3149:	e8 92 3f 00 00       	call   70e0 <subtract_vector3>
    314e:	c5 f9 6f d0          	vmovdqa xmm2,xmm0
    3152:	c5 f9 6f d9          	vmovdqa xmm3,xmm1
    3156:	e8 45 40 00 00       	call   71a0 <dot_product3x3>
    315b:	c5 f8 28 d0          	vmovaps xmm2,xmm0
    315f:	c5 fa 10 05 b5 8f 00 	vmovss xmm0,DWORD PTR [rip+0x8fb5]        # c11c <CSWTCH.3+0x5c>
    3166:	00 
    3167:	c5 fa 59 5b 70       	vmulss xmm3,xmm0,DWORD PTR [rbx+0x70]
    316c:	c5 e2 59 f3          	vmulss xmm6,xmm3,xmm3
    3170:	c5 f8 2f d6          	vcomiss xmm2,xmm6
    3174:	72 12                	jb     3188 <is_hit_down_cap+0x118>
    3176:	48 83 c4 50          	add    rsp,0x50
    317a:	31 c0                	xor    eax,eax
    317c:	5b                   	pop    rbx
    317d:	5d                   	pop    rbp
    317e:	41 5e                	pop    r14
    3180:	c3                   	ret    
    3181:	0f 1f 80 00 00 00 00 	nop    DWORD PTR [rax+0x0]
    3188:	c5 fa 10 7c 24 0c    	vmovss xmm7,DWORD PTR [rsp+0xc]
    318e:	c5 79 6f 44 24 20    	vmovdqa xmm8,XMMWORD PTR [rsp+0x20]
    3194:	c5 fa 7e 43 40       	vmovq  xmm0,QWORD PTR [rbx+0x40]
    3199:	c5 fa 7e 4b 48       	vmovq  xmm1,QWORD PTR [rbx+0x48]
    319e:	c5 fa 10 15 7a 8f 00 	vmovss xmm2,DWORD PTR [rip+0x8f7a]        # c120 <CSWTCH.3+0x60>
    31a5:	00 
    31a6:	c5 fa 11 7d 30       	vmovss DWORD PTR [rbp+0x30],xmm7
    31ab:	c5 79 7f 45 00       	vmovdqa XMMWORD PTR [rbp+0x0],xmm8
    31b0:	e8 6b 3f 00 00       	call   7120 <multiply_vector3>
    31b5:	c5 79 6f 4b 10       	vmovdqa xmm9,XMMWORD PTR [rbx+0x10]
    31ba:	48 89 5d 38          	mov    QWORD PTR [rbp+0x38],rbx
    31be:	b8 01 00 00 00       	mov    eax,0x1
    31c3:	c5 f9 d6 45 10       	vmovq  QWORD PTR [rbp+0x10],xmm0
    31c8:	c5 f9 d6 4d 18       	vmovq  QWORD PTR [rbp+0x18],xmm1
    31cd:	c5 79 7f 4d 20       	vmovdqa XMMWORD PTR [rbp+0x20],xmm9
    31d2:	48 83 c4 50          	add    rsp,0x50
    31d6:	5b                   	pop    rbx
    31d7:	5d                   	pop    rbp
    31d8:	41 5e                	pop    r14
    31da:	c3                   	ret    
    31db:	0f 1f 44 00 00       	nop    DWORD PTR [rax+rax*1+0x0]

00000000000031e0 <is_hit_cylinder_end_cap>:
    31e0:	f3 0f 1e fa          	endbr64 
    31e4:	41 54                	push   r12
    31e6:	49 89 f4             	mov    r12,rsi
    31e9:	55                   	push   rbp
    31ea:	48 89 fd             	mov    rbp,rdi
    31ed:	48 83 ec 58          	sub    rsp,0x58
    31f1:	c5 f9 6f 67 40       	vmovdqa xmm4,XMMWORD PTR [rdi+0x40]
    31f6:	c5 fa 7e 57 40       	vmovq  xmm2,QWORD PTR [rdi+0x40]
    31fb:	c5 fa 7e 4d 08       	vmovq  xmm1,QWORD PTR [rbp+0x8]
    3200:	c5 fa 7e 45 00       	vmovq  xmm0,QWORD PTR [rbp+0x0]
    3205:	48 8d 7c 24 30       	lea    rdi,[rsp+0x30]
    320a:	c5 f9 7f 24 24       	vmovdqa XMMWORD PTR [rsp],xmm4
    320f:	c5 fa 7e 5c 24 08    	vmovq  xmm3,QWORD PTR [rsp+0x8]
    3215:	e8 66 15 00 00       	call   4780 <get_ray>
    321a:	c5 fa 10 2d fa 8e 00 	vmovss xmm5,DWORD PTR [rip+0x8efa]        # c11c <CSWTCH.3+0x5c>
    3221:	00 
    3222:	c5 d2 59 45 74       	vmulss xmm0,xmm5,DWORD PTR [rbp+0x74]
    3227:	ff 74 24 48          	push   QWORD PTR [rsp+0x48]
    322b:	ff 74 24 48          	push   QWORD PTR [rsp+0x48]
    322f:	ff 74 24 48          	push   QWORD PTR [rsp+0x48]
    3233:	ff 74 24 48          	push   QWORD PTR [rsp+0x48]
    3237:	e8 84 15 00 00       	call   47c0 <get_point_in_ray>
    323c:	48 83 c4 20          	add    rsp,0x20
    3240:	4c 89 e6             	mov    rsi,r12
    3243:	48 89 ef             	mov    rdi,rbp
    3246:	ff b4 24 88 00 00 00 	push   QWORD PTR [rsp+0x88]
    324d:	ff b4 24 88 00 00 00 	push   QWORD PTR [rsp+0x88]
    3254:	ff b4 24 88 00 00 00 	push   QWORD PTR [rsp+0x88]
    325b:	ff b4 24 88 00 00 00 	push   QWORD PTR [rsp+0x88]
    3262:	e8 a9 fc ff ff       	call   2f10 <is_hit_up_cap>
    3267:	48 83 c4 20          	add    rsp,0x20
    326b:	84 c0                	test   al,al
    326d:	74 11                	je     3280 <is_hit_cylinder_end_cap+0xa0>
    326f:	48 83 c4 58          	add    rsp,0x58
    3273:	5d                   	pop    rbp
    3274:	41 5c                	pop    r12
    3276:	c3                   	ret    
    3277:	66 0f 1f 84 00 00 00 	nop    WORD PTR [rax+rax*1+0x0]
    327e:	00 00 
    3280:	ff 74 24 48          	push   QWORD PTR [rsp+0x48]
    3284:	c5 fa 10 35 90 8e 00 	vmovss xmm6,DWORD PTR [rip+0x8e90]        # c11c <CSWTCH.3+0x5c>
    328b:	00 
    328c:	c5 ca 59 45 74       	vmulss xmm0,xmm6,DWORD PTR [rbp+0x74]
    3291:	ff 74 24 48          	push   QWORD PTR [rsp+0x48]
    3295:	c5 f8 57 05 93 8e 00 	vxorps xmm0,xmm0,XMMWORD PTR [rip+0x8e93]        # c130 <CSWTCH.3+0x70>
    329c:	00 
    329d:	ff 74 24 48          	push   QWORD PTR [rsp+0x48]
    32a1:	ff 74 24 48          	push   QWORD PTR [rsp+0x48]
    32a5:	e8 16 15 00 00       	call   47c0 <get_point_in_ray>
    32aa:	48 83 c4 78          	add    rsp,0x78
    32ae:	4c 89 e6             	mov    rsi,r12
    32b1:	48 89 ef             	mov    rdi,rbp
    32b4:	5d                   	pop    rbp
    32b5:	41 5c                	pop    r12
    32b7:	e9 b4 fd ff ff       	jmp    3070 <is_hit_down_cap>
    32bc:	0f 1f 40 00          	nop    DWORD PTR [rax+0x0]

00000000000032c0 <is_hit_cylinder>:
    32c0:	f3 0f 1e fa          	endbr64 
    32c4:	41 54                	push   r12
    32c6:	49 89 f4             	mov    r12,rsi
    32c9:	55                   	push   rbp
    32ca:	48 89 fd             	mov    rbp,rdi
    32cd:	53                   	push   rbx
    32ce:	48 83 ec 20          	sub    rsp,0x20
    32d2:	ff 77 78             	push   QWORD PTR [rdi+0x78]
    32d5:	ff 77 70             	push   QWORD PTR [rdi+0x70]
    32d8:	ff 77 68             	push   QWORD PTR [rdi+0x68]
    32db:	ff 77 60             	push   QWORD PTR [rdi+0x60]
    32de:	ff 77 58             	push   QWORD PTR [rdi+0x58]
    32e1:	ff 77 50             	push   QWORD PTR [rdi+0x50]
    32e4:	ff 77 48             	push   QWORD PTR [rdi+0x48]
    32e7:	ff 77 40             	push   QWORD PTR [rdi+0x40]
    32ea:	ff 77 38             	push   QWORD PTR [rdi+0x38]
    32ed:	ff 77 30             	push   QWORD PTR [rdi+0x30]
    32f0:	ff 77 28             	push   QWORD PTR [rdi+0x28]
    32f3:	ff 77 20             	push   QWORD PTR [rdi+0x20]
    32f6:	ff 77 18             	push   QWORD PTR [rdi+0x18]
    32f9:	ff 77 10             	push   QWORD PTR [rdi+0x10]
    32fc:	ff 77 08             	push   QWORD PTR [rdi+0x8]
    32ff:	ff 37                	push   QWORD PTR [rdi]
    3301:	ff b4 24 d8 00 00 00 	push   QWORD PTR [rsp+0xd8]
    3308:	ff b4 24 d8 00 00 00 	push   QWORD PTR [rsp+0xd8]
    330f:	ff b4 24 d8 00 00 00 	push   QWORD PTR [rsp+0xd8]
    3316:	ff b4 24 d8 00 00 00 	push   QWORD PTR [rsp+0xd8]
    331d:	e8 ae 03 00 00       	call   36d0 <load_hit_cylinder_equation>
    3322:	c4 41 38 57 c0       	vxorps xmm8,xmm8,xmm8
    3327:	48 81 c4 a0 00 00 00 	add    rsp,0xa0
    332e:	c4 e1 f9 7e cb       	vmovq  rbx,xmm1
    3333:	c4 e1 f9 7e c0       	vmovq  rax,xmm0
    3338:	c5 fa 59 0d e4 8d 00 	vmulss xmm1,xmm0,DWORD PTR [rip+0x8de4]        # c124 <CSWTCH.3+0x64>
    333f:	00 
    3340:	c5 f9 6e f3          	vmovd  xmm6,ebx
    3344:	48 c1 e8 20          	shr    rax,0x20
    3348:	c5 79 6e d0          	vmovd  xmm10,eax
    334c:	c5 a8 57 1d dc 8d 00 	vxorps xmm3,xmm10,XMMWORD PTR [rip+0x8ddc]        # c130 <CSWTCH.3+0x70>
    3353:	00 
    3354:	c5 f2 59 fe          	vmulss xmm7,xmm1,xmm6
    3358:	c4 c2 29 bb fa       	vfmsub231ss xmm7,xmm10,xmm10
    335d:	c5 78 2e c7          	vucomiss xmm8,xmm7
    3361:	0f 87 d1 00 00 00    	ja     3438 <is_hit_cylinder+0x178>
    3367:	c5 c2 51 ff          	vsqrtss xmm7,xmm7,xmm7
    336b:	c5 7a 58 c8          	vaddss xmm9,xmm0,xmm0
    336f:	c5 62 5c df          	vsubss xmm11,xmm3,xmm7
    3373:	c4 41 22 5e e1       	vdivss xmm12,xmm11,xmm9
    3378:	c4 41 78 2f c4       	vcomiss xmm8,xmm12
    337d:	0f 83 45 01 00 00    	jae    34c8 <is_hit_cylinder+0x208>
    3383:	c4 41 78 2f 64 24 30 	vcomiss xmm12,DWORD PTR [r12+0x30]
    338a:	0f 83 38 01 00 00    	jae    34c8 <is_hit_cylinder+0x208>
    3390:	ff 75 78             	push   QWORD PTR [rbp+0x78]
    3393:	48 c1 eb 20          	shr    rbx,0x20
    3397:	c5 78 29 e0          	vmovaps xmm0,xmm12
    339b:	ff 75 70             	push   QWORD PTR [rbp+0x70]
    339e:	ff 75 68             	push   QWORD PTR [rbp+0x68]
    33a1:	ff 75 60             	push   QWORD PTR [rbp+0x60]
    33a4:	ff 75 58             	push   QWORD PTR [rbp+0x58]
    33a7:	ff 75 50             	push   QWORD PTR [rbp+0x50]
    33aa:	ff 75 48             	push   QWORD PTR [rbp+0x48]
    33ad:	ff 75 40             	push   QWORD PTR [rbp+0x40]
    33b0:	ff 75 38             	push   QWORD PTR [rbp+0x38]
    33b3:	ff 75 30             	push   QWORD PTR [rbp+0x30]
    33b6:	ff 75 28             	push   QWORD PTR [rbp+0x28]
    33b9:	ff 75 20             	push   QWORD PTR [rbp+0x20]
    33bc:	ff 75 18             	push   QWORD PTR [rbp+0x18]
    33bf:	ff 75 10             	push   QWORD PTR [rbp+0x10]
    33c2:	ff 75 08             	push   QWORD PTR [rbp+0x8]
    33c5:	ff 75 00             	push   QWORD PTR [rbp+0x0]
    33c8:	ff b4 24 d8 00 00 00 	push   QWORD PTR [rsp+0xd8]
    33cf:	ff b4 24 d8 00 00 00 	push   QWORD PTR [rsp+0xd8]
    33d6:	ff b4 24 d8 00 00 00 	push   QWORD PTR [rsp+0xd8]
    33dd:	ff b4 24 d8 00 00 00 	push   QWORD PTR [rsp+0xd8]
    33e4:	c5 7a 11 a4 24 a0 00 	vmovss DWORD PTR [rsp+0xa0],xmm12
    33eb:	00 00 
    33ed:	e8 ae 04 00 00       	call   38a0 <calculate_cylinder_hit_height>
    33f2:	c5 79 6e f3          	vmovd  xmm14,ebx
    33f6:	c4 41 00 57 ff       	vxorps xmm15,xmm15,xmm15
    33fb:	48 81 c4 a0 00 00 00 	add    rsp,0xa0
    3402:	c4 41 78 2f fe       	vcomiss xmm15,xmm14
    3407:	73 1c                	jae    3425 <is_hit_cylinder+0x165>
    3409:	c5 fa 10 25 0b 8d 00 	vmovss xmm4,DWORD PTR [rip+0x8d0b]        # c11c <CSWTCH.3+0x5c>
    3410:	00 
    3411:	c5 da 59 5d 74       	vmulss xmm3,xmm4,DWORD PTR [rbp+0x74]
    3416:	c5 fa 10 0c 24       	vmovss xmm1,DWORD PTR [rsp]
    341b:	c5 f8 2f c3          	vcomiss xmm0,xmm3
    341f:	0f 86 d3 00 00 00    	jbe    34f8 <is_hit_cylinder+0x238>
    3425:	48 83 c4 20          	add    rsp,0x20
    3429:	4c 89 e6             	mov    rsi,r12
    342c:	48 89 ef             	mov    rdi,rbp
    342f:	5b                   	pop    rbx
    3430:	5d                   	pop    rbp
    3431:	41 5c                	pop    r12
    3433:	e9 a8 fd ff ff       	jmp    31e0 <is_hit_cylinder_end_cap>
    3438:	c5 fa 11 44 24 08    	vmovss DWORD PTR [rsp+0x8],xmm0
    343e:	c5 f8 28 c7          	vmovaps xmm0,xmm7
    3442:	c5 fa 11 3c 24       	vmovss DWORD PTR [rsp],xmm7
    3447:	89 44 24 0c          	mov    DWORD PTR [rsp+0xc],eax
    344b:	c5 fa 11 5c 24 04    	vmovss DWORD PTR [rsp+0x4],xmm3
    3451:	e8 fa f3 ff ff       	call   2850 <sqrtf@plt>
    3456:	c5 fa 10 54 24 08    	vmovss xmm2,DWORD PTR [rsp+0x8]
    345c:	c5 fa 10 6c 24 04    	vmovss xmm5,DWORD PTR [rsp+0x4]
    3462:	c4 41 38 57 c0       	vxorps xmm8,xmm8,xmm8
    3467:	c5 fa 10 3c 24       	vmovss xmm7,DWORD PTR [rsp]
    346c:	c5 7a 10 54 24 0c    	vmovss xmm10,DWORD PTR [rsp+0xc]
    3472:	c5 6a 58 ca          	vaddss xmm9,xmm2,xmm2
    3476:	c5 d2 5c c0          	vsubss xmm0,xmm5,xmm0
    347a:	c4 41 7a 5e e1       	vdivss xmm12,xmm0,xmm9
    347f:	c4 41 78 2f c4       	vcomiss xmm8,xmm12
    3484:	73 17                	jae    349d <is_hit_cylinder+0x1dd>
    3486:	c4 41 78 2f 64 24 30 	vcomiss xmm12,DWORD PTR [r12+0x30]
    348d:	0f 82 fd fe ff ff    	jb     3390 <is_hit_cylinder+0xd0>
    3493:	c5 78 2e c7          	vucomiss xmm8,xmm7
    3497:	0f 86 e5 00 00 00    	jbe    3582 <is_hit_cylinder+0x2c2>
    349d:	c5 f8 28 c7          	vmovaps xmm0,xmm7
    34a1:	c5 7a 11 4c 24 04    	vmovss DWORD PTR [rsp+0x4],xmm9
    34a7:	c5 7a 11 14 24       	vmovss DWORD PTR [rsp],xmm10
    34ac:	e8 9f f3 ff ff       	call   2850 <sqrtf@plt>
    34b1:	c5 7a 10 4c 24 04    	vmovss xmm9,DWORD PTR [rsp+0x4]
    34b7:	c5 7a 10 14 24       	vmovss xmm10,DWORD PTR [rsp]
    34bc:	c4 41 38 57 c0       	vxorps xmm8,xmm8,xmm8
    34c1:	c5 f8 28 f8          	vmovaps xmm7,xmm0
    34c5:	0f 1f 00             	nop    DWORD PTR [rax]
    34c8:	c4 41 42 5c ea       	vsubss xmm13,xmm7,xmm10
    34cd:	c4 41 12 5e e1       	vdivss xmm12,xmm13,xmm9
    34d2:	c4 41 78 2f c4       	vcomiss xmm8,xmm12
    34d7:	73 0d                	jae    34e6 <is_hit_cylinder+0x226>
    34d9:	c4 41 78 2f 64 24 30 	vcomiss xmm12,DWORD PTR [r12+0x30]
    34e0:	0f 82 aa fe ff ff    	jb     3390 <is_hit_cylinder+0xd0>
    34e6:	48 83 c4 20          	add    rsp,0x20
    34ea:	31 c0                	xor    eax,eax
    34ec:	5b                   	pop    rbx
    34ed:	5d                   	pop    rbp
    34ee:	41 5c                	pop    r12
    34f0:	c3                   	ret    
    34f1:	0f 1f 80 00 00 00 00 	nop    DWORD PTR [rax+0x0]
    34f8:	ff 74 24 58          	push   QWORD PTR [rsp+0x58]
    34fc:	c5 f8 28 c1          	vmovaps xmm0,xmm1
    3500:	ff 74 24 58          	push   QWORD PTR [rsp+0x58]
    3504:	ff 74 24 58          	push   QWORD PTR [rsp+0x58]
    3508:	ff 74 24 58          	push   QWORD PTR [rsp+0x58]
    350c:	c4 c1 7a 11 4c 24 30 	vmovss DWORD PTR [r12+0x30],xmm1
    3513:	e8 a8 12 00 00       	call   47c0 <get_point_in_ray>
    3518:	c5 fa 10 35 fc 8b 00 	vmovss xmm6,DWORD PTR [rip+0x8bfc]        # c11c <CSWTCH.3+0x5c>
    351f:	00 
    3520:	c5 ca 59 55 70       	vmulss xmm2,xmm6,DWORD PTR [rbp+0x70]
    3525:	c5 fa 7e 5d 08       	vmovq  xmm3,QWORD PTR [rbp+0x8]
    352a:	c4 c1 79 d6 04 24    	vmovq  QWORD PTR [r12],xmm0
    3530:	c4 c1 79 d6 4c 24 08 	vmovq  QWORD PTR [r12+0x8],xmm1
    3537:	c5 fa 11 54 24 20    	vmovss DWORD PTR [rsp+0x20],xmm2
    353d:	c5 fa 7e 55 00       	vmovq  xmm2,QWORD PTR [rbp+0x0]
    3542:	48 83 c4 20          	add    rsp,0x20
    3546:	e8 95 3b 00 00       	call   70e0 <subtract_vector3>
    354b:	c5 fa 10 14 24       	vmovss xmm2,DWORD PTR [rsp]
    3550:	e8 0b 3c 00 00       	call   7160 <divide_vector3>
    3555:	c5 f9 6f 6d 10       	vmovdqa xmm5,XMMWORD PTR [rbp+0x10]
    355a:	49 89 6c 24 38       	mov    QWORD PTR [r12+0x38],rbp
    355f:	b8 01 00 00 00       	mov    eax,0x1
    3564:	c4 c1 79 d6 44 24 10 	vmovq  QWORD PTR [r12+0x10],xmm0
    356b:	c4 c1 79 d6 4c 24 18 	vmovq  QWORD PTR [r12+0x18],xmm1
    3572:	c4 c1 79 7f 6c 24 20 	vmovdqa XMMWORD PTR [r12+0x20],xmm5
    3579:	48 83 c4 20          	add    rsp,0x20
    357d:	5b                   	pop    rbx
    357e:	5d                   	pop    rbp
    357f:	41 5c                	pop    r12
    3581:	c3                   	ret    
    3582:	c5 c2 51 ff          	vsqrtss xmm7,xmm7,xmm7
    3586:	e9 3d ff ff ff       	jmp    34c8 <is_hit_cylinder+0x208>
    358b:	0f 1f 44 00 00       	nop    DWORD PTR [rax+rax*1+0x0]

0000000000003590 <delete_cylinder>:
    3590:	f3 0f 1e fa          	endbr64 
    3594:	e9 27 f0 ff ff       	jmp    25c0 <free@plt>
    3599:	0f 1f 80 00 00 00 00 	nop    DWORD PTR [rax+0x0]

00000000000035a0 <copy_construction_to_cylinder>:
    35a0:	f3 0f 1e fa          	endbr64 
    35a4:	55                   	push   rbp
    35a5:	bf 80 00 00 00       	mov    edi,0x80
    35aa:	48 89 e5             	mov    rbp,rsp
    35ad:	48 83 e4 e0          	and    rsp,0xffffffffffffffe0
    35b1:	e8 8a ef ff ff       	call   2540 <malloc@plt>
    35b6:	c5 f9 6f 55 10       	vmovdqa xmm2,XMMWORD PTR [rbp+0x10]
    35bb:	c5 f9 6f 5d 20       	vmovdqa xmm3,XMMWORD PTR [rbp+0x20]
    35c0:	48 8d 15 c9 ff ff ff 	lea    rdx,[rip+0xffffffffffffffc9]        # 3590 <delete_cylinder>
    35c7:	c5 fa 7e 05 f1 d9 00 	vmovq  xmm0,QWORD PTR [rip+0xd9f1]        # 10fc0 <_GLOBAL_OFFSET_TABLE_+0x250>
    35ce:	00 
    35cf:	c5 fa 7e 3d f9 d9 00 	vmovq  xmm7,QWORD PTR [rip+0xd9f9]        # 10fd0 <_GLOBAL_OFFSET_TABLE_+0x260>
    35d6:	00 
    35d7:	c5 f9 6f 65 30       	vmovdqa xmm4,XMMWORD PTR [rbp+0x30]
    35dc:	c5 f9 6f 6d 40       	vmovdqa xmm5,XMMWORD PTR [rbp+0x40]
    35e1:	c5 f9 7f 10          	vmovdqa XMMWORD PTR [rax],xmm2
    35e5:	c5 f9 6f 75 50       	vmovdqa xmm6,XMMWORD PTR [rbp+0x50]
    35ea:	48 8b 8d 80 00 00 00 	mov    rcx,QWORD PTR [rbp+0x80]
    35f1:	c5 f9 7f 58 10       	vmovdqa XMMWORD PTR [rax+0x10],xmm3
    35f6:	c4 63 f9 22 c2 01    	vpinsrq xmm8,xmm0,rdx,0x1
    35fc:	c4 e3 c1 22 0d d2 d9 	vpinsrq xmm1,xmm7,QWORD PTR [rip+0xd9d2],0x1        # 10fd8 <_GLOBAL_OFFSET_TABLE_+0x268>
    3603:	00 00 01 
    3606:	c5 f9 7f 60 20       	vmovdqa XMMWORD PTR [rax+0x20],xmm4
    360b:	48 89 48 70          	mov    QWORD PTR [rax+0x70],rcx
    360f:	c4 63 3d 38 c9 01    	vinserti128 ymm9,ymm8,xmm1,0x1
    3615:	c5 f9 7f 68 30       	vmovdqa XMMWORD PTR [rax+0x30],xmm5
    361a:	c5 f9 7f 70 40       	vmovdqa XMMWORD PTR [rax+0x40],xmm6
    361f:	c5 7e 7f 48 50       	vmovdqu YMMWORD PTR [rax+0x50],ymm9
    3624:	c5 f8 77             	vzeroupper 
    3627:	c9                   	leave  
    3628:	c3                   	ret    
    3629:	0f 1f 80 00 00 00 00 	nop    DWORD PTR [rax+0x0]

0000000000003630 <update_scale_diameter_cylinder>:
    3630:	f3 0f 1e fa          	endbr64 
    3634:	53                   	push   rbx
    3635:	48 89 fb             	mov    rbx,rdi
    3638:	83 fe 08             	cmp    esi,0x8
    363b:	74 2b                	je     3668 <update_scale_diameter_cylinder+0x38>
    363d:	83 fe 09             	cmp    esi,0x9
    3640:	74 06                	je     3648 <update_scale_diameter_cylinder+0x18>
    3642:	5b                   	pop    rbx
    3643:	c3                   	ret    
    3644:	0f 1f 40 00          	nop    DWORD PTR [rax+0x0]
    3648:	c5 fa 10 47 70       	vmovss xmm0,DWORD PTR [rdi+0x70]
    364d:	c5 fa 10 0d c7 8a 00 	vmovss xmm1,DWORD PTR [rip+0x8ac7]        # c11c <CSWTCH.3+0x5c>
    3654:	00 
    3655:	c5 fa 5c c1          	vsubss xmm0,xmm0,xmm1
    3659:	e8 32 ef ff ff       	call   2590 <fmaxf@plt>
    365e:	c5 fa 11 43 70       	vmovss DWORD PTR [rbx+0x70],xmm0
    3663:	5b                   	pop    rbx
    3664:	c3                   	ret    
    3665:	0f 1f 00             	nop    DWORD PTR [rax]
    3668:	c5 fa 10 0d ac 8a 00 	vmovss xmm1,DWORD PTR [rip+0x8aac]        # c11c <CSWTCH.3+0x5c>
    366f:	00 
    3670:	c5 f2 58 57 70       	vaddss xmm2,xmm1,DWORD PTR [rdi+0x70]
    3675:	5b                   	pop    rbx
    3676:	c5 fa 11 57 70       	vmovss DWORD PTR [rdi+0x70],xmm2
    367b:	c3                   	ret    
    367c:	0f 1f 40 00          	nop    DWORD PTR [rax+0x0]

0000000000003680 <update_scale_height_cylinder>:
    3680:	f3 0f 1e fa          	endbr64 
    3684:	53                   	push   rbx
    3685:	48 89 fb             	mov    rbx,rdi
    3688:	83 fe 0a             	cmp    esi,0xa
    368b:	74 2b                	je     36b8 <update_scale_height_cylinder+0x38>
    368d:	83 fe 0b             	cmp    esi,0xb
    3690:	74 06                	je     3698 <update_scale_height_cylinder+0x18>
    3692:	5b                   	pop    rbx
    3693:	c3                   	ret    
    3694:	0f 1f 40 00          	nop    DWORD PTR [rax+0x0]
    3698:	c5 fa 10 47 74       	vmovss xmm0,DWORD PTR [rdi+0x74]
    369d:	c5 fa 10 0d 77 8a 00 	vmovss xmm1,DWORD PTR [rip+0x8a77]        # c11c <CSWTCH.3+0x5c>
    36a4:	00 
    36a5:	c5 fa 5c c1          	vsubss xmm0,xmm0,xmm1
    36a9:	e8 e2 ee ff ff       	call   2590 <fmaxf@plt>
    36ae:	c5 fa 11 43 74       	vmovss DWORD PTR [rbx+0x74],xmm0
    36b3:	5b                   	pop    rbx
    36b4:	c3                   	ret    
    36b5:	0f 1f 00             	nop    DWORD PTR [rax]
    36b8:	c5 fa 10 0d 5c 8a 00 	vmovss xmm1,DWORD PTR [rip+0x8a5c]        # c11c <CSWTCH.3+0x5c>
    36bf:	00 
    36c0:	c5 f2 58 57 74       	vaddss xmm2,xmm1,DWORD PTR [rdi+0x74]
    36c5:	5b                   	pop    rbx
    36c6:	c5 fa 11 57 74       	vmovss DWORD PTR [rdi+0x74],xmm2
    36cb:	c3                   	ret    
    36cc:	0f 1f 40 00          	nop    DWORD PTR [rax+0x0]

00000000000036d0 <load_hit_cylinder_equation>:
    36d0:	f3 0f 1e fa          	endbr64 
    36d4:	48 81 ec 88 00 00 00 	sub    rsp,0x88
    36db:	c5 fa 10 a4 24 20 01 	vmovss xmm4,DWORD PTR [rsp+0x120]
    36e2:	00 00 
    36e4:	c5 f9 6f bc 24 f0 00 	vmovdqa xmm7,XMMWORD PTR [rsp+0xf0]
    36eb:	00 00 
    36ed:	c5 fa 7e 84 24 90 00 	vmovq  xmm0,QWORD PTR [rsp+0x90]
    36f4:	00 00 
    36f6:	c5 fa 7e 8c 24 98 00 	vmovq  xmm1,QWORD PTR [rsp+0x98]
    36fd:	00 00 
    36ff:	c5 fa 7e 94 24 b0 00 	vmovq  xmm2,QWORD PTR [rsp+0xb0]
    3706:	00 00 
    3708:	c5 fa 11 64 24 1c    	vmovss DWORD PTR [rsp+0x1c],xmm4
    370e:	c5 fa 7e 9c 24 b8 00 	vmovq  xmm3,QWORD PTR [rsp+0xb8]
    3715:	00 00 
    3717:	c5 f9 7f 7c 24 20    	vmovdqa XMMWORD PTR [rsp+0x20],xmm7
    371d:	e8 be 39 00 00       	call   70e0 <subtract_vector3>
    3722:	c5 fa 7e 5c 24 28    	vmovq  xmm3,QWORD PTR [rsp+0x28]
    3728:	c5 fa 7e 54 24 20    	vmovq  xmm2,QWORD PTR [rsp+0x20]
    372e:	c5 f9 d6 44 24 30    	vmovq  QWORD PTR [rsp+0x30],xmm0
    3734:	c5 fa 7e 84 24 a0 00 	vmovq  xmm0,QWORD PTR [rsp+0xa0]
    373b:	00 00 
    373d:	c5 f9 d6 4c 24 38    	vmovq  QWORD PTR [rsp+0x38],xmm1
    3743:	c5 fa 7e 8c 24 a8 00 	vmovq  xmm1,QWORD PTR [rsp+0xa8]
    374a:	00 00 
    374c:	e8 4f 3a 00 00       	call   71a0 <dot_product3x3>
    3751:	c5 fa 7e 4c 24 28    	vmovq  xmm1,QWORD PTR [rsp+0x28]
    3757:	c5 f8 28 d0          	vmovaps xmm2,xmm0
    375b:	c5 fa 7e 44 24 20    	vmovq  xmm0,QWORD PTR [rsp+0x20]
    3761:	e8 ba 39 00 00       	call   7120 <multiply_vector3>
    3766:	c5 f9 6f d0          	vmovdqa xmm2,xmm0
    376a:	c5 f9 6f d9          	vmovdqa xmm3,xmm1
    376e:	c5 fa 7e 84 24 a0 00 	vmovq  xmm0,QWORD PTR [rsp+0xa0]
    3775:	00 00 
    3777:	c5 fa 7e 8c 24 a8 00 	vmovq  xmm1,QWORD PTR [rsp+0xa8]
    377e:	00 00 
    3780:	e8 5b 39 00 00       	call   70e0 <subtract_vector3>
    3785:	c5 fa 7e 5c 24 28    	vmovq  xmm3,QWORD PTR [rsp+0x28]
    378b:	c5 fa 7e 54 24 20    	vmovq  xmm2,QWORD PTR [rsp+0x20]
    3791:	c5 f9 d6 44 24 40    	vmovq  QWORD PTR [rsp+0x40],xmm0
    3797:	c5 fa 7e 44 24 30    	vmovq  xmm0,QWORD PTR [rsp+0x30]
    379d:	c5 f9 d6 4c 24 48    	vmovq  QWORD PTR [rsp+0x48],xmm1
    37a3:	c5 fa 7e 4c 24 38    	vmovq  xmm1,QWORD PTR [rsp+0x38]
    37a9:	e8 f2 39 00 00       	call   71a0 <dot_product3x3>
    37ae:	c5 fa 7e 4c 24 28    	vmovq  xmm1,QWORD PTR [rsp+0x28]
    37b4:	c5 f8 28 d0          	vmovaps xmm2,xmm0
    37b8:	c5 fa 7e 44 24 20    	vmovq  xmm0,QWORD PTR [rsp+0x20]
    37be:	e8 5d 39 00 00       	call   7120 <multiply_vector3>
    37c3:	c5 f9 6f d0          	vmovdqa xmm2,xmm0
    37c7:	c5 f9 6f d9          	vmovdqa xmm3,xmm1
    37cb:	c5 fa 7e 44 24 30    	vmovq  xmm0,QWORD PTR [rsp+0x30]
    37d1:	c5 fa 7e 4c 24 38    	vmovq  xmm1,QWORD PTR [rsp+0x38]
    37d7:	e8 04 39 00 00       	call   70e0 <subtract_vector3>
    37dc:	c5 fa 7e 54 24 40    	vmovq  xmm2,QWORD PTR [rsp+0x40]
    37e2:	c5 fa 7e 5c 24 48    	vmovq  xmm3,QWORD PTR [rsp+0x48]
    37e8:	c5 f9 d6 44 24 50    	vmovq  QWORD PTR [rsp+0x50],xmm0
    37ee:	c5 f9 d6 4c 24 58    	vmovq  QWORD PTR [rsp+0x58],xmm1
    37f4:	c5 f9 6f c2          	vmovdqa xmm0,xmm2
    37f8:	c5 f9 6f cb          	vmovdqa xmm1,xmm3
    37fc:	e8 9f 39 00 00       	call   71a0 <dot_product3x3>
    3801:	c5 fa 7e 54 24 50    	vmovq  xmm2,QWORD PTR [rsp+0x50]
    3807:	c5 fa 7e 5c 24 58    	vmovq  xmm3,QWORD PTR [rsp+0x58]
    380d:	c5 fa 7e 4c 24 48    	vmovq  xmm1,QWORD PTR [rsp+0x48]
    3813:	c5 fa 11 44 24 18    	vmovss DWORD PTR [rsp+0x18],xmm0
    3819:	c5 fa 7e 44 24 40    	vmovq  xmm0,QWORD PTR [rsp+0x40]
    381f:	e8 7c 39 00 00       	call   71a0 <dot_product3x3>
    3824:	c5 fa 7e 54 24 50    	vmovq  xmm2,QWORD PTR [rsp+0x50]
    382a:	c5 fa 7e 5c 24 58    	vmovq  xmm3,QWORD PTR [rsp+0x58]
    3830:	c5 fa 58 f0          	vaddss xmm6,xmm0,xmm0
    3834:	c5 f9 6f cb          	vmovdqa xmm1,xmm3
    3838:	c5 f9 6f c2          	vmovdqa xmm0,xmm2
    383c:	c5 fa 11 34 24       	vmovss DWORD PTR [rsp],xmm6
    3841:	e8 5a 39 00 00       	call   71a0 <dot_product3x3>
    3846:	c5 fa 10 4c 24 1c    	vmovss xmm1,DWORD PTR [rsp+0x1c]
    384c:	c5 fa 10 5c 24 18    	vmovss xmm3,DWORD PTR [rsp+0x18]
    3852:	c5 f2 59 15 c2 88 00 	vmulss xmm2,xmm1,DWORD PTR [rip+0x88c2]        # c11c <CSWTCH.3+0x5c>
    3859:	00 
    385a:	c5 7a 10 0c 24       	vmovss xmm9,DWORD PTR [rsp]
    385f:	c4 41 60 14 d9       	vunpcklps xmm11,xmm3,xmm9
    3864:	c4 e2 79 9d d2       	vfnmadd132ss xmm2,xmm0,xmm2
    3869:	c5 e2 59 05 b3 88 00 	vmulss xmm0,xmm3,DWORD PTR [rip+0x88b3]        # c124 <CSWTCH.3+0x64>
    3870:	00 
    3871:	c5 7a 59 c2          	vmulss xmm8,xmm0,xmm2
    3875:	c4 42 31 bb c1       	vfmsub231ss xmm8,xmm9,xmm9
    387a:	c4 41 68 14 d0       	vunpcklps xmm10,xmm2,xmm8
    387f:	c4 41 20 16 e2       	vmovlhps xmm12,xmm11,xmm10
    3884:	c5 78 29 24 24       	vmovaps XMMWORD PTR [rsp],xmm12
    3889:	48 8b 44 24 08       	mov    rax,QWORD PTR [rsp+0x8]
    388e:	c5 fa 7e 04 24       	vmovq  xmm0,QWORD PTR [rsp]
    3893:	48 81 c4 88 00 00 00 	add    rsp,0x88
    389a:	c4 e1 f9 6e c8       	vmovq  xmm1,rax
    389f:	c3                   	ret    

00000000000038a0 <calculate_cylinder_hit_height>:
    38a0:	f3 0f 1e fa          	endbr64 
    38a4:	48 83 ec 48          	sub    rsp,0x48
    38a8:	c5 f8 28 d0          	vmovaps xmm2,xmm0
    38ac:	c5 f9 6f a4 24 b0 00 	vmovdqa xmm4,XMMWORD PTR [rsp+0xb0]
    38b3:	00 00 
    38b5:	c5 fa 7e 44 24 60    	vmovq  xmm0,QWORD PTR [rsp+0x60]
    38bb:	c5 fa 7e 4c 24 68    	vmovq  xmm1,QWORD PTR [rsp+0x68]
    38c1:	c5 f9 7f 24 24       	vmovdqa XMMWORD PTR [rsp],xmm4
    38c6:	e8 55 38 00 00       	call   7120 <multiply_vector3>
    38cb:	c5 f9 6f d0          	vmovdqa xmm2,xmm0
    38cf:	c5 f9 6f d9          	vmovdqa xmm3,xmm1
    38d3:	c5 fa 7e 44 24 50    	vmovq  xmm0,QWORD PTR [rsp+0x50]
    38d9:	c5 fa 7e 4c 24 58    	vmovq  xmm1,QWORD PTR [rsp+0x58]
    38df:	e8 bc 37 00 00       	call   70a0 <add_vector3>
    38e4:	c5 fa 7e 54 24 70    	vmovq  xmm2,QWORD PTR [rsp+0x70]
    38ea:	c5 fa 7e 5c 24 78    	vmovq  xmm3,QWORD PTR [rsp+0x78]
    38f0:	e8 eb 37 00 00       	call   70e0 <subtract_vector3>
    38f5:	c5 f9 6f d0          	vmovdqa xmm2,xmm0
    38f9:	c5 f9 6f d9          	vmovdqa xmm3,xmm1
    38fd:	c5 fa 7e 04 24       	vmovq  xmm0,QWORD PTR [rsp]
    3902:	c5 fa 7e 4c 24 08    	vmovq  xmm1,QWORD PTR [rsp+0x8]
    3908:	e8 93 38 00 00       	call   71a0 <dot_product3x3>
    390d:	c5 f8 54 05 2b 88 00 	vandps xmm0,xmm0,XMMWORD PTR [rip+0x882b]        # c140 <CSWTCH.3+0x80>
    3914:	00 
    3915:	48 83 c4 48          	add    rsp,0x48
    3919:	c3                   	ret    
    391a:	66 0f 1f 44 00 00    	nop    WORD PTR [rax+rax*1+0x0]

0000000000003920 <get_hit_record>:
    3920:	f3 0f 1e fa          	endbr64 
    3924:	41 54                	push   r12
    3926:	ba 10 00 00 00       	mov    edx,0x10
    392b:	49 89 fc             	mov    r12,rdi
    392e:	be 00 00 00 80       	mov    esi,0x80000000
    3933:	55                   	push   rbp
    3934:	48 83 ec 48          	sub    rsp,0x48
    3938:	48 89 e5             	mov    rbp,rsp
    393b:	48 8d 7c 24 20       	lea    rdi,[rsp+0x20]
    3940:	c7 44 24 30 ff ff 7f 	mov    DWORD PTR [rsp+0x30],0x7f7fffff
    3947:	7f 
    3948:	e8 43 22 00 00       	call   5b90 <ft_memset>
    394d:	48 89 ef             	mov    rdi,rbp
    3950:	ba 10 00 00 00       	mov    edx,0x10
    3955:	be 00 00 00 80       	mov    esi,0x80000000
    395a:	e8 31 22 00 00       	call   5b90 <ft_memset>
    395f:	48 8d 7c 24 10       	lea    rdi,[rsp+0x10]
    3964:	ba 10 00 00 00       	mov    edx,0x10
    3969:	be 00 00 00 80       	mov    esi,0x80000000
    396e:	e8 1d 22 00 00       	call   5b90 <ft_memset>
    3973:	c5 f9 6f 04 24       	vmovdqa xmm0,XMMWORD PTR [rsp]
    3978:	4c 89 e0             	mov    rax,r12
    397b:	c5 f9 6f 4c 24 10    	vmovdqa xmm1,XMMWORD PTR [rsp+0x10]
    3981:	c5 f9 6f 54 24 20    	vmovdqa xmm2,XMMWORD PTR [rsp+0x20]
    3987:	c5 f9 6f 5c 24 30    	vmovdqa xmm3,XMMWORD PTR [rsp+0x30]
    398d:	c4 c1 79 7f 04 24    	vmovdqa XMMWORD PTR [r12],xmm0
    3993:	c4 c1 79 7f 4c 24 10 	vmovdqa XMMWORD PTR [r12+0x10],xmm1
    399a:	c4 c1 79 7f 54 24 20 	vmovdqa XMMWORD PTR [r12+0x20],xmm2
    39a1:	c4 c1 79 7f 5c 24 30 	vmovdqa XMMWORD PTR [r12+0x30],xmm3
    39a8:	48 83 c4 48          	add    rsp,0x48
    39ac:	5d                   	pop    rbp
    39ad:	41 5c                	pop    r12
    39af:	c3                   	ret    

00000000000039b0 <init_canvas>:
    39b0:	f3 0f 1e fa          	endbr64 
    39b4:	55                   	push   rbp
    39b5:	31 c0                	xor    eax,eax
    39b7:	53                   	push   rbx
    39b8:	48 89 fb             	mov    rbx,rdi
    39bb:	48 83 ec 08          	sub    rsp,0x8
    39bf:	e8 2c 6b 00 00       	call   a4f0 <mlx_init>
    39c4:	48 89 03             	mov    QWORD PTR [rbx],rax
    39c7:	48 89 c7             	mov    rdi,rax
    39ca:	48 85 c0             	test   rax,rax
    39cd:	0f 84 8d 00 00 00    	je     3a60 <init_canvas+0xb0>
    39d3:	48 8d 53 30          	lea    rdx,[rbx+0x30]
    39d7:	48 8d 73 28          	lea    rsi,[rbx+0x28]
    39db:	e8 f0 7a 00 00       	call   b4d0 <mlx_get_screen_size>
    39e0:	8b 7b 30             	mov    edi,DWORD PTR [rbx+0x30]
    39e3:	be e8 03 00 00       	mov    esi,0x3e8
    39e8:	e8 43 29 00 00       	call   6330 <get_min>
    39ed:	c5 f9 6f 05 ab 87 00 	vmovdqa xmm0,XMMWORD PTR [rip+0x87ab]        # c1a0 <CSWTCH.3+0xe0>
    39f4:	00 
    39f5:	48 8b 3b             	mov    rdi,QWORD PTR [rbx]
    39f8:	be e8 03 00 00       	mov    esi,0x3e8
    39fd:	48 8d 0d 69 87 00 00 	lea    rcx,[rip+0x8769]        # c16d <CSWTCH.3+0xad>
    3a04:	ba e8 03 00 00       	mov    edx,0x3e8
    3a09:	c5 fa 7f 43 28       	vmovdqu XMMWORD PTR [rbx+0x28],xmm0
    3a0e:	e8 3d 6c 00 00       	call   a650 <mlx_new_window>
    3a13:	48 89 43 08          	mov    QWORD PTR [rbx+0x8],rax
    3a17:	48 89 c6             	mov    rsi,rax
    3a1a:	48 85 c0             	test   rax,rax
    3a1d:	74 61                	je     3a80 <init_canvas+0xd0>
    3a1f:	48 8b 3b             	mov    rdi,QWORD PTR [rbx]
    3a22:	e8 a9 76 00 00       	call   b0d0 <mlx_clear_window>
    3a27:	8b 53 30             	mov    edx,DWORD PTR [rbx+0x30]
    3a2a:	8b 73 28             	mov    esi,DWORD PTR [rbx+0x28]
    3a2d:	48 8b 3b             	mov    rdi,QWORD PTR [rbx]
    3a30:	e8 9b 74 00 00       	call   aed0 <mlx_new_image>
    3a35:	48 89 c5             	mov    rbp,rax
    3a38:	48 85 c0             	test   rax,rax
    3a3b:	74 63                	je     3aa0 <init_canvas+0xf0>
    3a3d:	48 89 6b 10          	mov    QWORD PTR [rbx+0x10],rbp
    3a41:	48 83 c4 08          	add    rsp,0x8
    3a45:	48 8d 4b 20          	lea    rcx,[rbx+0x20]
    3a49:	48 8d 53 1c          	lea    rdx,[rbx+0x1c]
    3a4d:	48 8d 73 18          	lea    rsi,[rbx+0x18]
    3a51:	48 89 ef             	mov    rdi,rbp
    3a54:	5b                   	pop    rbx
    3a55:	5d                   	pop    rbp
    3a56:	e9 15 75 00 00       	jmp    af70 <mlx_get_data_addr>
    3a5b:	0f 1f 44 00 00       	nop    DWORD PTR [rax+rax*1+0x0]
    3a60:	48 8d 3d fa 86 00 00 	lea    rdi,[rip+0x86fa]        # c161 <CSWTCH.3+0xa1>
    3a67:	48 8d 35 e2 86 00 00 	lea    rsi,[rip+0x86e2]        # c150 <CSWTCH.3+0x90>
    3a6e:	e8 5d 2e 00 00       	call   68d0 <exit_by_error>
    3a73:	48 8b 3b             	mov    rdi,QWORD PTR [rbx]
    3a76:	e9 58 ff ff ff       	jmp    39d3 <init_canvas+0x23>
    3a7b:	0f 1f 44 00 00       	nop    DWORD PTR [rax+rax*1+0x0]
    3a80:	48 8d 35 ed 86 00 00 	lea    rsi,[rip+0x86ed]        # c174 <CSWTCH.3+0xb4>
    3a87:	48 8d 3d d3 86 00 00 	lea    rdi,[rip+0x86d3]        # c161 <CSWTCH.3+0xa1>
    3a8e:	e8 3d 2e 00 00       	call   68d0 <exit_by_error>
    3a93:	48 8b 73 08          	mov    rsi,QWORD PTR [rbx+0x8]
    3a97:	eb 86                	jmp    3a1f <init_canvas+0x6f>
    3a99:	0f 1f 80 00 00 00 00 	nop    DWORD PTR [rax+0x0]
    3aa0:	48 8d 35 dd 86 00 00 	lea    rsi,[rip+0x86dd]        # c184 <CSWTCH.3+0xc4>
    3aa7:	48 8d 3d e5 86 00 00 	lea    rdi,[rip+0x86e5]        # c193 <CSWTCH.3+0xd3>
    3aae:	e8 1d 2e 00 00       	call   68d0 <exit_by_error>
    3ab3:	eb 88                	jmp    3a3d <init_canvas+0x8d>
    3ab5:	66 66 2e 0f 1f 84 00 	data16 cs nop WORD PTR [rax+rax*1+0x0]
    3abc:	00 00 00 00 

0000000000003ac0 <free_canvas>:
    3ac0:	f3 0f 1e fa          	endbr64 
    3ac4:	53                   	push   rbx
    3ac5:	48 89 fb             	mov    rbx,rdi
    3ac8:	48 8b 77 10          	mov    rsi,QWORD PTR [rdi+0x10]
    3acc:	48 8b 3f             	mov    rdi,QWORD PTR [rdi]
    3acf:	e8 6c 79 00 00       	call   b440 <mlx_destroy_image>
    3ad4:	48 c7 43 10 00 00 00 	mov    QWORD PTR [rbx+0x10],0x0
    3adb:	00 
    3adc:	48 8b 73 08          	mov    rsi,QWORD PTR [rbx+0x8]
    3ae0:	48 8b 3b             	mov    rdi,QWORD PTR [rbx]
    3ae3:	e8 18 76 00 00       	call   b100 <mlx_destroy_window>
    3ae8:	48 c7 43 08 00 00 00 	mov    QWORD PTR [rbx+0x8],0x0
    3aef:	00 
    3af0:	48 8b 3b             	mov    rdi,QWORD PTR [rbx]
    3af3:	e8 48 7a 00 00       	call   b540 <mlx_destroy_display>
    3af8:	48 8b 3b             	mov    rdi,QWORD PTR [rbx]
    3afb:	e8 c0 ea ff ff       	call   25c0 <free@plt>
    3b00:	48 c7 03 00 00 00 00 	mov    QWORD PTR [rbx],0x0
    3b07:	5b                   	pop    rbx
    3b08:	c3                   	ret    
    3b09:	0f 1f 80 00 00 00 00 	nop    DWORD PTR [rax+0x0]

0000000000003b10 <init_img>:
    3b10:	f3 0f 1e fa          	endbr64 
    3b14:	48 83 ec 18          	sub    rsp,0x18
    3b18:	8b 57 30             	mov    edx,DWORD PTR [rdi+0x30]
    3b1b:	8b 77 28             	mov    esi,DWORD PTR [rdi+0x28]
    3b1e:	48 8b 3f             	mov    rdi,QWORD PTR [rdi]
    3b21:	e8 aa 73 00 00       	call   aed0 <mlx_new_image>
    3b26:	48 85 c0             	test   rax,rax
    3b29:	74 05                	je     3b30 <init_img+0x20>
    3b2b:	48 83 c4 18          	add    rsp,0x18
    3b2f:	c3                   	ret    
    3b30:	48 8d 35 4d 86 00 00 	lea    rsi,[rip+0x864d]        # c184 <CSWTCH.3+0xc4>
    3b37:	48 8d 3d 55 86 00 00 	lea    rdi,[rip+0x8655]        # c193 <CSWTCH.3+0xd3>
    3b3e:	48 89 44 24 08       	mov    QWORD PTR [rsp+0x8],rax
    3b43:	e8 88 2d 00 00       	call   68d0 <exit_by_error>
    3b48:	48 8b 44 24 08       	mov    rax,QWORD PTR [rsp+0x8]
    3b4d:	48 83 c4 18          	add    rsp,0x18
    3b51:	c3                   	ret    
    3b52:	66 2e 0f 1f 84 00 00 	cs nop WORD PTR [rax+rax*1+0x0]
    3b59:	00 00 00 
    3b5c:	0f 1f 40 00          	nop    DWORD PTR [rax+0x0]

0000000000003b60 <is_valid_file>:
    3b60:	f3 0f 1e fa          	endbr64 
    3b64:	80 3f 00             	cmp    BYTE PTR [rdi],0x0
    3b67:	74 48                	je     3bb1 <is_valid_file+0x51>
    3b69:	55                   	push   rbp
    3b6a:	48 8d 2d 3f 86 00 00 	lea    rbp,[rip+0x863f]        # c1b0 <CSWTCH.3+0xf0>
    3b71:	53                   	push   rbx
    3b72:	48 89 fb             	mov    rbx,rdi
    3b75:	48 83 ec 08          	sub    rsp,0x8
    3b79:	eb 0e                	jmp    3b89 <is_valid_file+0x29>
    3b7b:	0f 1f 44 00 00       	nop    DWORD PTR [rax+rax*1+0x0]
    3b80:	48 83 c3 01          	add    rbx,0x1
    3b84:	80 3b 00             	cmp    BYTE PTR [rbx],0x0
    3b87:	74 1f                	je     3ba8 <is_valid_file+0x48>
    3b89:	48 89 ee             	mov    rsi,rbp
    3b8c:	48 89 df             	mov    rdi,rbx
    3b8f:	e8 2c 20 00 00       	call   5bc0 <ft_strcmp>
    3b94:	85 c0                	test   eax,eax
    3b96:	75 e8                	jne    3b80 <is_valid_file+0x20>
    3b98:	48 83 c4 08          	add    rsp,0x8
    3b9c:	b8 01 00 00 00       	mov    eax,0x1
    3ba1:	5b                   	pop    rbx
    3ba2:	5d                   	pop    rbp
    3ba3:	c3                   	ret    
    3ba4:	0f 1f 40 00          	nop    DWORD PTR [rax+0x0]
    3ba8:	48 83 c4 08          	add    rsp,0x8
    3bac:	31 c0                	xor    eax,eax
    3bae:	5b                   	pop    rbx
    3baf:	5d                   	pop    rbp
    3bb0:	c3                   	ret    
    3bb1:	31 c0                	xor    eax,eax
    3bb3:	c3                   	ret    
    3bb4:	66 66 2e 0f 1f 84 00 	data16 cs nop WORD PTR [rax+rax*1+0x0]
    3bbb:	00 00 00 00 
    3bbf:	90                   	nop

0000000000003bc0 <try_parse_attributes>:
    3bc0:	f3 0f 1e fa          	endbr64 
    3bc4:	41 55                	push   r13
    3bc6:	49 89 d5             	mov    r13,rdx
    3bc9:	41 54                	push   r12
    3bcb:	49 89 f4             	mov    r12,rsi
    3bce:	48 8d 35 df 85 00 00 	lea    rsi,[rip+0x85df]        # c1b4 <CSWTCH.3+0xf4>
    3bd5:	55                   	push   rbp
    3bd6:	48 89 fd             	mov    rbp,rdi
    3bd9:	48 8b 3f             	mov    rdi,QWORD PTR [rdi]
    3bdc:	e8 df 1f 00 00       	call   5bc0 <ft_strcmp>
    3be1:	85 c0                	test   eax,eax
    3be3:	75 13                	jne    3bf8 <try_parse_attributes+0x38>
    3be5:	4c 89 e6             	mov    rsi,r12
    3be8:	48 89 ef             	mov    rdi,rbp
    3beb:	5d                   	pop    rbp
    3bec:	41 5c                	pop    r12
    3bee:	41 5d                	pop    r13
    3bf0:	e9 5b 1b 00 00       	jmp    5750 <try_add_ambient_light_to_world>
    3bf5:	0f 1f 00             	nop    DWORD PTR [rax]
    3bf8:	48 8b 7d 00          	mov    rdi,QWORD PTR [rbp+0x0]
    3bfc:	48 8d 35 b3 85 00 00 	lea    rsi,[rip+0x85b3]        # c1b6 <CSWTCH.3+0xf6>
    3c03:	e8 b8 1f 00 00       	call   5bc0 <ft_strcmp>
    3c08:	85 c0                	test   eax,eax
    3c0a:	75 14                	jne    3c20 <try_parse_attributes+0x60>
    3c0c:	4c 89 e6             	mov    rsi,r12
    3c0f:	48 89 ef             	mov    rdi,rbp
    3c12:	5d                   	pop    rbp
    3c13:	41 5c                	pop    r12
    3c15:	41 5d                	pop    r13
    3c17:	e9 94 1c 00 00       	jmp    58b0 <try_add_light_to_world>
    3c1c:	0f 1f 40 00          	nop    DWORD PTR [rax+0x0]
    3c20:	48 8b 7d 00          	mov    rdi,QWORD PTR [rbp+0x0]
    3c24:	48 8d 35 8d 85 00 00 	lea    rsi,[rip+0x858d]        # c1b8 <CSWTCH.3+0xf8>
    3c2b:	e8 90 1f 00 00       	call   5bc0 <ft_strcmp>
    3c30:	85 c0                	test   eax,eax
    3c32:	74 2c                	je     3c60 <try_parse_attributes+0xa0>
    3c34:	48 8b 7d 00          	mov    rdi,QWORD PTR [rbp+0x0]
    3c38:	48 8d 35 7b 85 00 00 	lea    rsi,[rip+0x857b]        # c1ba <CSWTCH.3+0xfa>
    3c3f:	e8 7c 1f 00 00       	call   5bc0 <ft_strcmp>
    3c44:	85 c0                	test   eax,eax
    3c46:	75 30                	jne    3c78 <try_parse_attributes+0xb8>
    3c48:	4c 89 e6             	mov    rsi,r12
    3c4b:	48 89 ef             	mov    rdi,rbp
    3c4e:	5d                   	pop    rbp
    3c4f:	41 5c                	pop    r12
    3c51:	41 5d                	pop    r13
    3c53:	e9 c8 03 00 00       	jmp    4020 <try_add_sphere_to_world>
    3c58:	0f 1f 84 00 00 00 00 	nop    DWORD PTR [rax+rax*1+0x0]
    3c5f:	00 
    3c60:	4c 89 ea             	mov    rdx,r13
    3c63:	4c 89 e6             	mov    rsi,r12
    3c66:	48 89 ef             	mov    rdi,rbp
    3c69:	5d                   	pop    rbp
    3c6a:	41 5c                	pop    r12
    3c6c:	41 5d                	pop    r13
    3c6e:	e9 6d 1b 00 00       	jmp    57e0 <try_add_camera_to_world>
    3c73:	0f 1f 44 00 00       	nop    DWORD PTR [rax+rax*1+0x0]
    3c78:	48 8b 7d 00          	mov    rdi,QWORD PTR [rbp+0x0]
    3c7c:	48 8d 35 3a 85 00 00 	lea    rsi,[rip+0x853a]        # c1bd <CSWTCH.3+0xfd>
    3c83:	e8 38 1f 00 00       	call   5bc0 <ft_strcmp>
    3c88:	85 c0                	test   eax,eax
    3c8a:	74 24                	je     3cb0 <try_parse_attributes+0xf0>
    3c8c:	48 8b 7d 00          	mov    rdi,QWORD PTR [rbp+0x0]
    3c90:	48 8d 35 29 85 00 00 	lea    rsi,[rip+0x8529]        # c1c0 <CSWTCH.3+0x100>
    3c97:	e8 24 1f 00 00       	call   5bc0 <ft_strcmp>
    3c9c:	85 c0                	test   eax,eax
    3c9e:	75 20                	jne    3cc0 <try_parse_attributes+0x100>
    3ca0:	4c 89 e6             	mov    rsi,r12
    3ca3:	48 89 ef             	mov    rdi,rbp
    3ca6:	5d                   	pop    rbp
    3ca7:	41 5c                	pop    r12
    3ca9:	41 5d                	pop    r13
    3cab:	e9 c0 07 00 00       	jmp    4470 <try_add_cylinder_to_world>
    3cb0:	4c 89 e6             	mov    rsi,r12
    3cb3:	48 89 ef             	mov    rdi,rbp
    3cb6:	5d                   	pop    rbp
    3cb7:	41 5c                	pop    r12
    3cb9:	41 5d                	pop    r13
    3cbb:	e9 e0 04 00 00       	jmp    41a0 <try_add_plane_to_world>
    3cc0:	5d                   	pop    rbp
    3cc1:	31 c0                	xor    eax,eax
    3cc3:	41 5c                	pop    r12
    3cc5:	41 5d                	pop    r13
    3cc7:	c3                   	ret    
    3cc8:	0f 1f 84 00 00 00 00 	nop    DWORD PTR [rax+rax*1+0x0]
    3ccf:	00 

0000000000003cd0 <try_parse_file>:
    3cd0:	f3 0f 1e fa          	endbr64 
    3cd4:	41 57                	push   r15
    3cd6:	31 c0                	xor    eax,eax
    3cd8:	45 31 ff             	xor    r15d,r15d
    3cdb:	41 56                	push   r14
    3cdd:	49 89 f6             	mov    r14,rsi
    3ce0:	31 f6                	xor    esi,esi
    3ce2:	41 55                	push   r13
    3ce4:	41 54                	push   r12
    3ce6:	55                   	push   rbp
    3ce7:	53                   	push   rbx
    3ce8:	48 89 d3             	mov    rbx,rdx
    3ceb:	48 83 ec 08          	sub    rsp,0x8
    3cef:	e8 1c eb ff ff       	call   2810 <open@plt>
    3cf4:	41 89 c5             	mov    r13d,eax
    3cf7:	83 f8 ff             	cmp    eax,0xffffffff
    3cfa:	74 65                	je     3d61 <try_parse_file+0x91>
    3cfc:	44 89 ef             	mov    edi,r13d
    3cff:	e8 ac 28 00 00       	call   65b0 <get_next_line>
    3d04:	48 89 c5             	mov    rbp,rax
    3d07:	48 85 c0             	test   rax,rax
    3d0a:	0f 84 8c 00 00 00    	je     3d9c <try_parse_file+0xcc>
    3d10:	48 89 c7             	mov    rdi,rax
    3d13:	e8 48 1e 00 00       	call   5b60 <ft_strlen>
    3d18:	be 20 00 00 00       	mov    esi,0x20
    3d1d:	48 89 ef             	mov    rdi,rbp
    3d20:	c6 44 05 ff 00       	mov    BYTE PTR [rbp+rax*1-0x1],0x0
    3d25:	e8 c6 23 00 00       	call   60f0 <ft_split>
    3d2a:	48 83 38 00          	cmp    QWORD PTR [rax],0x0
    3d2e:	49 89 c4             	mov    r12,rax
    3d31:	74 45                	je     3d78 <try_parse_file+0xa8>
    3d33:	48 89 da             	mov    rdx,rbx
    3d36:	4c 89 f6             	mov    rsi,r14
    3d39:	48 89 c7             	mov    rdi,rax
    3d3c:	e8 7f fe ff ff       	call   3bc0 <try_parse_attributes>
    3d41:	4c 89 e7             	mov    rdi,r12
    3d44:	41 89 c7             	mov    r15d,eax
    3d47:	e8 54 25 00 00       	call   62a0 <clear_words>
    3d4c:	48 89 ef             	mov    rdi,rbp
    3d4f:	e8 6c e8 ff ff       	call   25c0 <free@plt>
    3d54:	45 84 ff             	test   r15b,r15b
    3d57:	75 a3                	jne    3cfc <try_parse_file+0x2c>
    3d59:	44 89 ef             	mov    edi,r13d
    3d5c:	e8 0f e7 ff ff       	call   2470 <close@plt>
    3d61:	48 83 c4 08          	add    rsp,0x8
    3d65:	44 89 f8             	mov    eax,r15d
    3d68:	5b                   	pop    rbx
    3d69:	5d                   	pop    rbp
    3d6a:	41 5c                	pop    r12
    3d6c:	41 5d                	pop    r13
    3d6e:	41 5e                	pop    r14
    3d70:	41 5f                	pop    r15
    3d72:	c3                   	ret    
    3d73:	0f 1f 44 00 00       	nop    DWORD PTR [rax+rax*1+0x0]
    3d78:	48 89 c7             	mov    rdi,rax
    3d7b:	e8 20 25 00 00       	call   62a0 <clear_words>
    3d80:	48 89 ef             	mov    rdi,rbp
    3d83:	e8 38 e8 ff ff       	call   25c0 <free@plt>
    3d88:	44 89 ef             	mov    edi,r13d
    3d8b:	e8 20 28 00 00       	call   65b0 <get_next_line>
    3d90:	48 89 c5             	mov    rbp,rax
    3d93:	48 85 c0             	test   rax,rax
    3d96:	0f 85 74 ff ff ff    	jne    3d10 <try_parse_file+0x40>
    3d9c:	41 bf 01 00 00 00    	mov    r15d,0x1
    3da2:	eb b5                	jmp    3d59 <try_parse_file+0x89>
    3da4:	66 66 2e 0f 1f 84 00 	data16 cs nop WORD PTR [rax+rax*1+0x0]
    3dab:	00 00 00 00 
    3daf:	90                   	nop

0000000000003db0 <try_parse>:
    3db0:	f3 0f 1e fa          	endbr64 
    3db4:	83 ff 02             	cmp    edi,0x2
    3db7:	74 07                	je     3dc0 <try_parse+0x10>
    3db9:	31 c0                	xor    eax,eax
    3dbb:	c3                   	ret    
    3dbc:	0f 1f 40 00          	nop    DWORD PTR [rax+0x0]
    3dc0:	41 56                	push   r14
    3dc2:	41 55                	push   r13
    3dc4:	49 89 f5             	mov    r13,rsi
    3dc7:	41 54                	push   r12
    3dc9:	55                   	push   rbp
    3dca:	53                   	push   rbx
    3dcb:	48 8b 5e 08          	mov    rbx,QWORD PTR [rsi+0x8]
    3dcf:	80 3b 00             	cmp    BYTE PTR [rbx],0x0
    3dd2:	74 74                	je     3e48 <try_parse+0x98>
    3dd4:	49 89 d4             	mov    r12,rdx
    3dd7:	49 89 ce             	mov    r14,rcx
    3dda:	48 8d 2d cf 83 00 00 	lea    rbp,[rip+0x83cf]        # c1b0 <CSWTCH.3+0xf0>
    3de1:	eb 0e                	jmp    3df1 <try_parse+0x41>
    3de3:	0f 1f 44 00 00       	nop    DWORD PTR [rax+rax*1+0x0]
    3de8:	48 83 c3 01          	add    rbx,0x1
    3dec:	80 3b 00             	cmp    BYTE PTR [rbx],0x0
    3def:	74 57                	je     3e48 <try_parse+0x98>
    3df1:	48 89 ee             	mov    rsi,rbp
    3df4:	48 89 df             	mov    rdi,rbx
    3df7:	e8 c4 1d 00 00       	call   5bc0 <ft_strcmp>
    3dfc:	85 c0                	test   eax,eax
    3dfe:	75 e8                	jne    3de8 <try_parse+0x38>
    3e00:	4c 89 e7             	mov    rdi,r12
    3e03:	e8 08 19 00 00       	call   5710 <init_world>
    3e08:	49 8b 7d 08          	mov    rdi,QWORD PTR [r13+0x8]
    3e0c:	4c 89 f2             	mov    rdx,r14
    3e0f:	4c 89 e6             	mov    rsi,r12
    3e12:	e8 b9 fe ff ff       	call   3cd0 <try_parse_file>
    3e17:	84 c0                	test   al,al
    3e19:	74 25                	je     3e40 <try_parse+0x90>
    3e1b:	41 80 bc 24 80 00 00 	cmp    BYTE PTR [r12+0x80],0x0
    3e22:	00 00 
    3e24:	74 1a                	je     3e40 <try_parse+0x90>
    3e26:	41 80 7c 24 50 00    	cmp    BYTE PTR [r12+0x50],0x0
    3e2c:	74 12                	je     3e40 <try_parse+0x90>
    3e2e:	41 0f b6 84 24 c0 00 	movzx  eax,BYTE PTR [r12+0xc0]
    3e35:	00 00 
    3e37:	84 c0                	test   al,al
    3e39:	75 0f                	jne    3e4a <try_parse+0x9a>
    3e3b:	0f 1f 44 00 00       	nop    DWORD PTR [rax+rax*1+0x0]
    3e40:	4c 89 e7             	mov    rdi,r12
    3e43:	e8 f8 18 00 00       	call   5740 <destroy_world>
    3e48:	31 c0                	xor    eax,eax
    3e4a:	5b                   	pop    rbx
    3e4b:	5d                   	pop    rbp
    3e4c:	41 5c                	pop    r12
    3e4e:	41 5d                	pop    r13
    3e50:	41 5e                	pop    r14
    3e52:	c3                   	ret    
    3e53:	66 2e 0f 1f 84 00 00 	cs nop WORD PTR [rax+rax*1+0x0]
    3e5a:	00 00 00 
    3e5d:	0f 1f 00             	nop    DWORD PTR [rax]

0000000000003e60 <try_parse_vector3>:
    3e60:	f3 0f 1e fa          	endbr64 
    3e64:	41 55                	push   r13
    3e66:	41 54                	push   r12
    3e68:	55                   	push   rbp
    3e69:	48 89 f5             	mov    rbp,rsi
    3e6c:	be 2c 00 00 00       	mov    esi,0x2c
    3e71:	53                   	push   rbx
    3e72:	48 83 ec 08          	sub    rsp,0x8
    3e76:	e8 75 22 00 00       	call   60f0 <ft_split>
    3e7b:	48 89 ee             	mov    rsi,rbp
    3e7e:	48 8b 38             	mov    rdi,QWORD PTR [rax]
    3e81:	49 89 c4             	mov    r12,rax
    3e84:	e8 27 2b 00 00       	call   69b0 <try_atof>
    3e89:	49 8b 7c 24 08       	mov    rdi,QWORD PTR [r12+0x8]
    3e8e:	48 8d 75 04          	lea    rsi,[rbp+0x4]
    3e92:	89 c3                	mov    ebx,eax
    3e94:	e8 17 2b 00 00       	call   69b0 <try_atof>
    3e99:	49 8b 7c 24 10       	mov    rdi,QWORD PTR [r12+0x10]
    3e9e:	48 8d 75 08          	lea    rsi,[rbp+0x8]
    3ea2:	41 89 c5             	mov    r13d,eax
    3ea5:	e8 06 2b 00 00       	call   69b0 <try_atof>
    3eaa:	4c 89 e7             	mov    rdi,r12
    3ead:	89 c5                	mov    ebp,eax
    3eaf:	e8 ec 23 00 00       	call   62a0 <clear_words>
    3eb4:	89 d8                	mov    eax,ebx
    3eb6:	48 83 c4 08          	add    rsp,0x8
    3eba:	44 21 e8             	and    eax,r13d
    3ebd:	5b                   	pop    rbx
    3ebe:	21 e8                	and    eax,ebp
    3ec0:	5d                   	pop    rbp
    3ec1:	41 5c                	pop    r12
    3ec3:	41 5d                	pop    r13
    3ec5:	c3                   	ret    
    3ec6:	66 2e 0f 1f 84 00 00 	cs nop WORD PTR [rax+rax*1+0x0]
    3ecd:	00 00 00 

0000000000003ed0 <try_parse_color>:
    3ed0:	f3 0f 1e fa          	endbr64 
    3ed4:	41 56                	push   r14
    3ed6:	41 55                	push   r13
    3ed8:	41 54                	push   r12
    3eda:	55                   	push   rbp
    3edb:	48 89 f5             	mov    rbp,rsi
    3ede:	be 2c 00 00 00       	mov    esi,0x2c
    3ee3:	53                   	push   rbx
    3ee4:	e8 07 22 00 00       	call   60f0 <ft_split>
    3ee9:	48 89 ee             	mov    rsi,rbp
    3eec:	48 8b 38             	mov    rdi,QWORD PTR [rax]
    3eef:	49 89 c4             	mov    r12,rax
    3ef2:	e8 79 20 00 00       	call   5f70 <try_atoi>
    3ef7:	49 8b 7c 24 08       	mov    rdi,QWORD PTR [r12+0x8]
    3efc:	48 8d 75 04          	lea    rsi,[rbp+0x4]
    3f00:	89 c3                	mov    ebx,eax
    3f02:	e8 69 20 00 00       	call   5f70 <try_atoi>
    3f07:	49 8b 7c 24 10       	mov    rdi,QWORD PTR [r12+0x10]
    3f0c:	48 8d 75 08          	lea    rsi,[rbp+0x8]
    3f10:	41 89 c6             	mov    r14d,eax
    3f13:	e8 58 20 00 00       	call   5f70 <try_atoi>
    3f18:	4c 89 e7             	mov    rdi,r12
    3f1b:	41 89 c5             	mov    r13d,eax
    3f1e:	e8 7d 23 00 00       	call   62a0 <clear_words>
    3f23:	89 d8                	mov    eax,ebx
    3f25:	44 21 f0             	and    eax,r14d
    3f28:	44 20 e8             	and    al,r13b
    3f2b:	75 23                	jne    3f50 <try_parse_color+0x80>
    3f2d:	48 c7 45 00 00 00 00 	mov    QWORD PTR [rbp+0x0],0x0
    3f34:	00 
    3f35:	31 c0                	xor    eax,eax
    3f37:	c7 45 08 00 00 00 00 	mov    DWORD PTR [rbp+0x8],0x0
    3f3e:	5b                   	pop    rbx
    3f3f:	5d                   	pop    rbp
    3f40:	41 5c                	pop    r12
    3f42:	41 5d                	pop    r13
    3f44:	41 5e                	pop    r14
    3f46:	c3                   	ret    
    3f47:	66 0f 1f 84 00 00 00 	nop    WORD PTR [rax+rax*1+0x0]
    3f4e:	00 00 
    3f50:	8b 55 04             	mov    edx,DWORD PTR [rbp+0x4]
    3f53:	0b 55 00             	or     edx,DWORD PTR [rbp+0x0]
    3f56:	0b 55 08             	or     edx,DWORD PTR [rbp+0x8]
    3f59:	81 fa ff 00 00 00    	cmp    edx,0xff
    3f5f:	77 cc                	ja     3f2d <try_parse_color+0x5d>
    3f61:	eb db                	jmp    3f3e <try_parse_color+0x6e>
    3f63:	66 66 2e 0f 1f 84 00 	data16 cs nop WORD PTR [rax+rax*1+0x0]
    3f6a:	00 00 00 00 
    3f6e:	66 90                	xchg   ax,ax

0000000000003f70 <is_invalid_normalized_vector3>:
    3f70:	f3 0f 1e fa          	endbr64 
    3f74:	c5 f9 d6 44 24 e8    	vmovq  QWORD PTR [rsp-0x18],xmm0
    3f7a:	c5 fa 10 44 24 e8    	vmovss xmm0,DWORD PTR [rsp-0x18]
    3f80:	b8 01 00 00 00       	mov    eax,0x1
    3f85:	c5 f9 d6 4c 24 f0    	vmovq  QWORD PTR [rsp-0x10],xmm1
    3f8b:	c5 fa 10 0d 31 82 00 	vmovss xmm1,DWORD PTR [rip+0x8231]        # c1c4 <CSWTCH.3+0x104>
    3f92:	00 
    3f93:	c5 f8 2f c1          	vcomiss xmm0,xmm1
    3f97:	76 07                	jbe    3fa0 <is_invalid_normalized_vector3+0x30>
    3f99:	c3                   	ret    
    3f9a:	66 0f 1f 44 00 00    	nop    WORD PTR [rax+rax*1+0x0]
    3fa0:	c5 fa 10 15 78 81 00 	vmovss xmm2,DWORD PTR [rip+0x8178]        # c120 <CSWTCH.3+0x60>
    3fa7:	00 
    3fa8:	c5 f8 2f d0          	vcomiss xmm2,xmm0
    3fac:	77 eb                	ja     3f99 <is_invalid_normalized_vector3+0x29>
    3fae:	c5 fa 10 5c 24 ec    	vmovss xmm3,DWORD PTR [rsp-0x14]
    3fb4:	c5 f8 2f d9          	vcomiss xmm3,xmm1
    3fb8:	77 df                	ja     3f99 <is_invalid_normalized_vector3+0x29>
    3fba:	c5 f8 2f d3          	vcomiss xmm2,xmm3
    3fbe:	77 d9                	ja     3f99 <is_invalid_normalized_vector3+0x29>
    3fc0:	c5 fa 10 64 24 f0    	vmovss xmm4,DWORD PTR [rsp-0x10]
    3fc6:	c5 f8 2f e1          	vcomiss xmm4,xmm1
    3fca:	77 cd                	ja     3f99 <is_invalid_normalized_vector3+0x29>
    3fcc:	c5 f8 2f d4          	vcomiss xmm2,xmm4
    3fd0:	0f 97 c0             	seta   al
    3fd3:	c3                   	ret    
    3fd4:	66 66 2e 0f 1f 84 00 	data16 cs nop WORD PTR [rax+rax*1+0x0]
    3fdb:	00 00 00 00 
    3fdf:	90                   	nop

0000000000003fe0 <is_invalid_ratio_in_range>:
    3fe0:	f3 0f 1e fa          	endbr64 
    3fe4:	c5 f0 57 c9          	vxorps xmm1,xmm1,xmm1
    3fe8:	b8 01 00 00 00       	mov    eax,0x1
    3fed:	c5 f8 2f c8          	vcomiss xmm1,xmm0
    3ff1:	77 0b                	ja     3ffe <is_invalid_ratio_in_range+0x1e>
    3ff3:	c5 f8 2f 05 c9 81 00 	vcomiss xmm0,DWORD PTR [rip+0x81c9]        # c1c4 <CSWTCH.3+0x104>
    3ffa:	00 
    3ffb:	0f 97 c0             	seta   al
    3ffe:	c3                   	ret    
    3fff:	90                   	nop

0000000000004000 <is_invalid_colors>:
    4000:	f3 0f 1e fa          	endbr64 
    4004:	48 89 f8             	mov    rax,rdi
    4007:	48 c1 e8 20          	shr    rax,0x20
    400b:	09 f0                	or     eax,esi
    400d:	09 f8                	or     eax,edi
    400f:	3d ff 00 00 00       	cmp    eax,0xff
    4014:	0f 97 c0             	seta   al
    4017:	c3                   	ret    
    4018:	0f 1f 84 00 00 00 00 	nop    DWORD PTR [rax+rax*1+0x0]
    401f:	00 

0000000000004020 <try_add_sphere_to_world>:
    4020:	f3 0f 1e fa          	endbr64 
    4024:	4c 8d 54 24 08       	lea    r10,[rsp+0x8]
    4029:	48 83 e4 e0          	and    rsp,0xffffffffffffffe0
    402d:	41 ff 72 f8          	push   QWORD PTR [r10-0x8]
    4031:	55                   	push   rbp
    4032:	48 89 e5             	mov    rbp,rsp
    4035:	41 55                	push   r13
    4037:	49 89 f5             	mov    r13,rsi
    403a:	41 54                	push   r12
    403c:	41 52                	push   r10
    403e:	53                   	push   rbx
    403f:	48 89 fb             	mov    rbx,rdi
    4042:	48 81 ec f0 00 00 00 	sub    rsp,0xf0
    4049:	e8 b2 22 00 00       	call   6300 <get_count_to_words>
    404e:	48 83 f8 04          	cmp    rax,0x4
    4052:	74 1c                	je     4070 <try_add_sphere_to_world+0x50>
    4054:	45 31 e4             	xor    r12d,r12d
    4057:	48 8d 65 e0          	lea    rsp,[rbp-0x20]
    405b:	44 89 e0             	mov    eax,r12d
    405e:	5b                   	pop    rbx
    405f:	5a                   	pop    rdx
    4060:	41 5c                	pop    r12
    4062:	41 5d                	pop    r13
    4064:	5d                   	pop    rbp
    4065:	48 8d 62 f8          	lea    rsp,[rdx-0x8]
    4069:	c3                   	ret    
    406a:	66 0f 1f 44 00 00    	nop    WORD PTR [rax+rax*1+0x0]
    4070:	48 8b 7b 08          	mov    rdi,QWORD PTR [rbx+0x8]
    4074:	be 2c 00 00 00       	mov    esi,0x2c
    4079:	e8 c2 21 00 00       	call   6240 <get_count_words>
    407e:	48 83 f8 03          	cmp    rax,0x3
    4082:	75 d0                	jne    4054 <try_add_sphere_to_world+0x34>
    4084:	48 8b 7b 18          	mov    rdi,QWORD PTR [rbx+0x18]
    4088:	be 2c 00 00 00       	mov    esi,0x2c
    408d:	e8 ae 21 00 00       	call   6240 <get_count_words>
    4092:	48 83 f8 03          	cmp    rax,0x3
    4096:	75 bc                	jne    4054 <try_add_sphere_to_world+0x34>
    4098:	48 8b 7b 08          	mov    rdi,QWORD PTR [rbx+0x8]
    409c:	48 8d b5 50 ff ff ff 	lea    rsi,[rbp-0xb0]
    40a3:	e8 b8 fd ff ff       	call   3e60 <try_parse_vector3>
    40a8:	84 c0                	test   al,al
    40aa:	74 a8                	je     4054 <try_add_sphere_to_world+0x34>
    40ac:	48 8b 7b 10          	mov    rdi,QWORD PTR [rbx+0x10]
    40b0:	48 8d 75 c0          	lea    rsi,[rbp-0x40]
    40b4:	e8 f7 28 00 00       	call   69b0 <try_atof>
    40b9:	84 c0                	test   al,al
    40bb:	74 97                	je     4054 <try_add_sphere_to_world+0x34>
    40bd:	48 8b 7b 18          	mov    rdi,QWORD PTR [rbx+0x18]
    40c1:	48 8d b5 60 ff ff ff 	lea    rsi,[rbp-0xa0]
    40c8:	e8 03 fe ff ff       	call   3ed0 <try_parse_color>
    40cd:	41 89 c4             	mov    r12d,eax
    40d0:	84 c0                	test   al,al
    40d2:	74 80                	je     4054 <try_add_sphere_to_world+0x34>
    40d4:	c5 f9 ef c0          	vpxor  xmm0,xmm0,xmm0
    40d8:	48 8d bd f0 fe ff ff 	lea    rdi,[rbp-0x110]
    40df:	c5 f9 7f 85 40 ff ff 	vmovdqa XMMWORD PTR [rbp-0xc0],xmm0
    40e6:	ff 
    40e7:	c5 f9 ef c0          	vpxor  xmm0,xmm0,xmm0
    40eb:	c7 85 48 ff ff ff 00 	mov    DWORD PTR [rbp-0xb8],0x3f800000
    40f2:	00 80 3f 
    40f5:	c5 fa 7e 8d 48 ff ff 	vmovq  xmm1,QWORD PTR [rbp-0xb8]
    40fc:	ff 
    40fd:	e8 ee 10 00 00       	call   51f0 <get_local_basis>
    4102:	ff 75 c8             	push   QWORD PTR [rbp-0x38]
    4105:	c5 f9 6f 9d f0 fe ff 	vmovdqa xmm3,XMMWORD PTR [rbp-0x110]
    410c:	ff 
    410d:	c5 f9 6f 8d 00 ff ff 	vmovdqa xmm1,XMMWORD PTR [rbp-0x100]
    4114:	ff 
    4115:	ff 75 c0             	push   QWORD PTR [rbp-0x40]
    4118:	c5 f9 6f 95 10 ff ff 	vmovdqa xmm2,XMMWORD PTR [rbp-0xf0]
    411f:	ff 
    4120:	ff 75 b8             	push   QWORD PTR [rbp-0x48]
    4123:	ff 75 b0             	push   QWORD PTR [rbp-0x50]
    4126:	ff 75 a8             	push   QWORD PTR [rbp-0x58]
    4129:	ff 75 a0             	push   QWORD PTR [rbp-0x60]
    412c:	c5 f9 7f 9d 70 ff ff 	vmovdqa XMMWORD PTR [rbp-0x90],xmm3
    4133:	ff 
    4134:	c5 f9 7f 4d 80       	vmovdqa XMMWORD PTR [rbp-0x80],xmm1
    4139:	48 83 ec 30          	sub    rsp,0x30
    413d:	c5 f9 7f 55 90       	vmovdqa XMMWORD PTR [rbp-0x70],xmm2
    4142:	c5 fa 7f 54 24 20    	vmovdqu XMMWORD PTR [rsp+0x20],xmm2
    4148:	c5 fa 7f 4c 24 10    	vmovdqu XMMWORD PTR [rsp+0x10],xmm1
    414e:	c5 fa 7f 1c 24       	vmovdqu XMMWORD PTR [rsp],xmm3
    4153:	ff b5 68 ff ff ff    	push   QWORD PTR [rbp-0x98]
    4159:	ff b5 60 ff ff ff    	push   QWORD PTR [rbp-0xa0]
    415f:	ff b5 58 ff ff ff    	push   QWORD PTR [rbp-0xa8]
    4165:	ff b5 50 ff ff ff    	push   QWORD PTR [rbp-0xb0]
    416b:	e8 30 14 00 00       	call   55a0 <copy_construction_to_sphere>
    4170:	48 83 ec 80          	sub    rsp,0xffffffffffffff80
    4174:	48 8d b5 38 ff ff ff 	lea    rsi,[rbp-0xc8]
    417b:	49 8d bd c8 00 00 00 	lea    rdi,[r13+0xc8]
    4182:	48 89 85 38 ff ff ff 	mov    QWORD PTR [rbp-0xc8],rax
    4189:	41 ff 95 f0 00 00 00 	call   QWORD PTR [r13+0xf0]
    4190:	e9 c2 fe ff ff       	jmp    4057 <try_add_sphere_to_world+0x37>
    4195:	66 66 2e 0f 1f 84 00 	data16 cs nop WORD PTR [rax+rax*1+0x0]
    419c:	00 00 00 00 

00000000000041a0 <try_add_plane_to_world>:
    41a0:	f3 0f 1e fa          	endbr64 
    41a4:	4c 8d 54 24 08       	lea    r10,[rsp+0x8]
    41a9:	48 83 e4 e0          	and    rsp,0xffffffffffffffe0
    41ad:	41 ff 72 f8          	push   QWORD PTR [r10-0x8]
    41b1:	55                   	push   rbp
    41b2:	48 89 e5             	mov    rbp,rsp
    41b5:	41 56                	push   r14
    41b7:	41 55                	push   r13
    41b9:	41 54                	push   r12
    41bb:	49 89 f4             	mov    r12,rsi
    41be:	41 52                	push   r10
    41c0:	53                   	push   rbx
    41c1:	48 89 fb             	mov    rbx,rdi
    41c4:	48 81 ec c8 00 00 00 	sub    rsp,0xc8
    41cb:	e8 30 21 00 00       	call   6300 <get_count_to_words>
    41d0:	48 83 f8 04          	cmp    rax,0x4
    41d4:	74 1a                	je     41f0 <try_add_plane_to_world+0x50>
    41d6:	45 31 ed             	xor    r13d,r13d
    41d9:	48 8d 65 d8          	lea    rsp,[rbp-0x28]
    41dd:	44 89 e8             	mov    eax,r13d
    41e0:	5b                   	pop    rbx
    41e1:	5a                   	pop    rdx
    41e2:	41 5c                	pop    r12
    41e4:	41 5d                	pop    r13
    41e6:	41 5e                	pop    r14
    41e8:	5d                   	pop    rbp
    41e9:	48 8d 62 f8          	lea    rsp,[rdx-0x8]
    41ed:	c3                   	ret    
    41ee:	66 90                	xchg   ax,ax
    41f0:	48 8b 7b 08          	mov    rdi,QWORD PTR [rbx+0x8]
    41f4:	be 2c 00 00 00       	mov    esi,0x2c
    41f9:	e8 42 20 00 00       	call   6240 <get_count_words>
    41fe:	48 83 f8 03          	cmp    rax,0x3
    4202:	75 d2                	jne    41d6 <try_add_plane_to_world+0x36>
    4204:	48 8b 7b 10          	mov    rdi,QWORD PTR [rbx+0x10]
    4208:	be 2c 00 00 00       	mov    esi,0x2c
    420d:	e8 2e 20 00 00       	call   6240 <get_count_words>
    4212:	48 83 f8 03          	cmp    rax,0x3
    4216:	75 be                	jne    41d6 <try_add_plane_to_world+0x36>
    4218:	48 8b 7b 18          	mov    rdi,QWORD PTR [rbx+0x18]
    421c:	be 2c 00 00 00       	mov    esi,0x2c
    4221:	e8 1a 20 00 00       	call   6240 <get_count_words>
    4226:	48 83 f8 03          	cmp    rax,0x3
    422a:	75 aa                	jne    41d6 <try_add_plane_to_world+0x36>
    422c:	48 8b 7b 08          	mov    rdi,QWORD PTR [rbx+0x8]
    4230:	48 8d b5 60 ff ff ff 	lea    rsi,[rbp-0xa0]
    4237:	e8 24 fc ff ff       	call   3e60 <try_parse_vector3>
    423c:	48 8b 7b 10          	mov    rdi,QWORD PTR [rbx+0x10]
    4240:	48 8d 75 a0          	lea    rsi,[rbp-0x60]
    4244:	41 89 c5             	mov    r13d,eax
    4247:	e8 14 fc ff ff       	call   3e60 <try_parse_vector3>
    424c:	48 8b 7b 18          	mov    rdi,QWORD PTR [rbx+0x18]
    4250:	48 8d b5 70 ff ff ff 	lea    rsi,[rbp-0x90]
    4257:	41 89 c6             	mov    r14d,eax
    425a:	e8 71 fc ff ff       	call   3ed0 <try_parse_color>
    425f:	89 c3                	mov    ebx,eax
    4261:	45 84 ed             	test   r13b,r13b
    4264:	0f 84 6c ff ff ff    	je     41d6 <try_add_plane_to_world+0x36>
    426a:	45 84 f6             	test   r14b,r14b
    426d:	0f 84 63 ff ff ff    	je     41d6 <try_add_plane_to_world+0x36>
    4273:	c5 fa 7e 45 a0       	vmovq  xmm0,QWORD PTR [rbp-0x60]
    4278:	c5 fa 7e 4d a8       	vmovq  xmm1,QWORD PTR [rbp-0x58]
    427d:	e8 ee fc ff ff       	call   3f70 <is_invalid_normalized_vector3>
    4282:	83 f0 01             	xor    eax,0x1
    4285:	41 89 c5             	mov    r13d,eax
    4288:	41 20 dd             	and    r13b,bl
    428b:	0f 84 45 ff ff ff    	je     41d6 <try_add_plane_to_world+0x36>
    4291:	c5 fa 7e 45 a0       	vmovq  xmm0,QWORD PTR [rbp-0x60]
    4296:	c5 fa 7e 4d a8       	vmovq  xmm1,QWORD PTR [rbp-0x58]
    429b:	e8 10 2d 00 00       	call   6fb0 <normalize_vector3>
    42a0:	48 8d bd 10 ff ff ff 	lea    rdi,[rbp-0xf0]
    42a7:	c5 f9 d6 45 a0       	vmovq  QWORD PTR [rbp-0x60],xmm0
    42ac:	c5 f9 d6 4d a8       	vmovq  QWORD PTR [rbp-0x58],xmm1
    42b1:	e8 3a 0f 00 00       	call   51f0 <get_local_basis>
    42b6:	ff 75 c8             	push   QWORD PTR [rbp-0x38]
    42b9:	c5 f9 6f 85 10 ff ff 	vmovdqa xmm0,XMMWORD PTR [rbp-0xf0]
    42c0:	ff 
    42c1:	c5 f9 6f 8d 20 ff ff 	vmovdqa xmm1,XMMWORD PTR [rbp-0xe0]
    42c8:	ff 
    42c9:	ff 75 c0             	push   QWORD PTR [rbp-0x40]
    42cc:	c5 f9 6f 95 30 ff ff 	vmovdqa xmm2,XMMWORD PTR [rbp-0xd0]
    42d3:	ff 
    42d4:	ff 75 b8             	push   QWORD PTR [rbp-0x48]
    42d7:	ff 75 b0             	push   QWORD PTR [rbp-0x50]
    42da:	c5 f9 7f 45 80       	vmovdqa XMMWORD PTR [rbp-0x80],xmm0
    42df:	c5 f9 7f 4d 90       	vmovdqa XMMWORD PTR [rbp-0x70],xmm1
    42e4:	48 83 ec 30          	sub    rsp,0x30
    42e8:	c5 f9 7f 55 a0       	vmovdqa XMMWORD PTR [rbp-0x60],xmm2
    42ed:	c5 fa 7f 54 24 20    	vmovdqu XMMWORD PTR [rsp+0x20],xmm2
    42f3:	c5 fa 7f 4c 24 10    	vmovdqu XMMWORD PTR [rsp+0x10],xmm1
    42f9:	c5 fa 7f 04 24       	vmovdqu XMMWORD PTR [rsp],xmm0
    42fe:	ff b5 78 ff ff ff    	push   QWORD PTR [rbp-0x88]
    4304:	ff b5 70 ff ff ff    	push   QWORD PTR [rbp-0x90]
    430a:	ff b5 68 ff ff ff    	push   QWORD PTR [rbp-0x98]
    4310:	ff b5 60 ff ff ff    	push   QWORD PTR [rbp-0xa0]
    4316:	e8 b5 03 00 00       	call   46d0 <copy_construction_to_plane>
    431b:	48 83 c4 70          	add    rsp,0x70
    431f:	48 8d b5 58 ff ff ff 	lea    rsi,[rbp-0xa8]
    4326:	49 8d bc 24 c8 00 00 	lea    rdi,[r12+0xc8]
    432d:	00 
    432e:	48 89 85 58 ff ff ff 	mov    QWORD PTR [rbp-0xa8],rax
    4335:	41 ff 94 24 f0 00 00 	call   QWORD PTR [r12+0xf0]
    433c:	00 
    433d:	e9 97 fe ff ff       	jmp    41d9 <try_add_plane_to_world+0x39>
    4342:	66 66 2e 0f 1f 84 00 	data16 cs nop WORD PTR [rax+rax*1+0x0]
    4349:	00 00 00 00 
    434d:	0f 1f 00             	nop    DWORD PTR [rax]

0000000000004350 <is_invalid_value_in_plane>:
    4350:	f3 0f 1e fa          	endbr64 
    4354:	41 55                	push   r13
    4356:	41 54                	push   r12
    4358:	55                   	push   rbp
    4359:	48 89 fd             	mov    rbp,rdi
    435c:	53                   	push   rbx
    435d:	48 89 f3             	mov    rbx,rsi
    4360:	48 83 ec 08          	sub    rsp,0x8
    4364:	48 8b 7f 08          	mov    rdi,QWORD PTR [rdi+0x8]
    4368:	e8 f3 fa ff ff       	call   3e60 <try_parse_vector3>
    436d:	48 8b 7d 10          	mov    rdi,QWORD PTR [rbp+0x10]
    4371:	48 8d 73 40          	lea    rsi,[rbx+0x40]
    4375:	41 89 c4             	mov    r12d,eax
    4378:	e8 e3 fa ff ff       	call   3e60 <try_parse_vector3>
    437d:	48 8b 7d 18          	mov    rdi,QWORD PTR [rbp+0x18]
    4381:	48 8d 73 10          	lea    rsi,[rbx+0x10]
    4385:	41 89 c5             	mov    r13d,eax
    4388:	e8 43 fb ff ff       	call   3ed0 <try_parse_color>
    438d:	45 84 e4             	test   r12b,r12b
    4390:	74 05                	je     4397 <is_invalid_value_in_plane+0x47>
    4392:	45 84 ed             	test   r13b,r13b
    4395:	75 19                	jne    43b0 <is_invalid_value_in_plane+0x60>
    4397:	48 83 c4 08          	add    rsp,0x8
    439b:	b8 01 00 00 00       	mov    eax,0x1
    43a0:	5b                   	pop    rbx
    43a1:	5d                   	pop    rbp
    43a2:	41 5c                	pop    r12
    43a4:	41 5d                	pop    r13
    43a6:	c3                   	ret    
    43a7:	66 0f 1f 84 00 00 00 	nop    WORD PTR [rax+rax*1+0x0]
    43ae:	00 00 
    43b0:	c5 fa 7e 43 40       	vmovq  xmm0,QWORD PTR [rbx+0x40]
    43b5:	c5 fa 7e 4b 48       	vmovq  xmm1,QWORD PTR [rbx+0x48]
    43ba:	89 c5                	mov    ebp,eax
    43bc:	e8 af fb ff ff       	call   3f70 <is_invalid_normalized_vector3>
    43c1:	48 83 c4 08          	add    rsp,0x8
    43c5:	41 89 c0             	mov    r8d,eax
    43c8:	89 e8                	mov    eax,ebp
    43ca:	5b                   	pop    rbx
    43cb:	5d                   	pop    rbp
    43cc:	83 f0 01             	xor    eax,0x1
    43cf:	41 5c                	pop    r12
    43d1:	41 5d                	pop    r13
    43d3:	44 09 c0             	or     eax,r8d
    43d6:	c3                   	ret    
    43d7:	66 0f 1f 84 00 00 00 	nop    WORD PTR [rax+rax*1+0x0]
    43de:	00 00 

00000000000043e0 <is_invalid_value_in_cylinder>:
    43e0:	f3 0f 1e fa          	endbr64 
    43e4:	55                   	push   rbp
    43e5:	48 89 fd             	mov    rbp,rdi
    43e8:	53                   	push   rbx
    43e9:	48 89 f3             	mov    rbx,rsi
    43ec:	48 83 ec 08          	sub    rsp,0x8
    43f0:	48 8b 7f 08          	mov    rdi,QWORD PTR [rdi+0x8]
    43f4:	e8 67 fa ff ff       	call   3e60 <try_parse_vector3>
    43f9:	84 c0                	test   al,al
    43fb:	75 13                	jne    4410 <is_invalid_value_in_cylinder+0x30>
    43fd:	b8 01 00 00 00       	mov    eax,0x1
    4402:	48 83 c4 08          	add    rsp,0x8
    4406:	5b                   	pop    rbx
    4407:	5d                   	pop    rbp
    4408:	c3                   	ret    
    4409:	0f 1f 80 00 00 00 00 	nop    DWORD PTR [rax+0x0]
    4410:	48 8b 7d 10          	mov    rdi,QWORD PTR [rbp+0x10]
    4414:	48 8d 73 40          	lea    rsi,[rbx+0x40]
    4418:	e8 43 fa ff ff       	call   3e60 <try_parse_vector3>
    441d:	84 c0                	test   al,al
    441f:	74 dc                	je     43fd <is_invalid_value_in_cylinder+0x1d>
    4421:	c5 fa 7e 43 40       	vmovq  xmm0,QWORD PTR [rbx+0x40]
    4426:	c5 fa 7e 4b 48       	vmovq  xmm1,QWORD PTR [rbx+0x48]
    442b:	e8 40 fb ff ff       	call   3f70 <is_invalid_normalized_vector3>
    4430:	84 c0                	test   al,al
    4432:	75 c9                	jne    43fd <is_invalid_value_in_cylinder+0x1d>
    4434:	48 8b 7d 18          	mov    rdi,QWORD PTR [rbp+0x18]
    4438:	48 8d 73 70          	lea    rsi,[rbx+0x70]
    443c:	e8 6f 25 00 00       	call   69b0 <try_atof>
    4441:	84 c0                	test   al,al
    4443:	74 b8                	je     43fd <is_invalid_value_in_cylinder+0x1d>
    4445:	48 8b 7d 20          	mov    rdi,QWORD PTR [rbp+0x20]
    4449:	48 8d 73 74          	lea    rsi,[rbx+0x74]
    444d:	e8 5e 25 00 00       	call   69b0 <try_atof>
    4452:	84 c0                	test   al,al
    4454:	74 a7                	je     43fd <is_invalid_value_in_cylinder+0x1d>
    4456:	48 8b 7d 28          	mov    rdi,QWORD PTR [rbp+0x28]
    445a:	48 8d 73 10          	lea    rsi,[rbx+0x10]
    445e:	e8 6d fa ff ff       	call   3ed0 <try_parse_color>
    4463:	83 f0 01             	xor    eax,0x1
    4466:	eb 9a                	jmp    4402 <is_invalid_value_in_cylinder+0x22>
    4468:	0f 1f 84 00 00 00 00 	nop    DWORD PTR [rax+rax*1+0x0]
    446f:	00 

0000000000004470 <try_add_cylinder_to_world>:
    4470:	f3 0f 1e fa          	endbr64 
    4474:	4c 8d 54 24 08       	lea    r10,[rsp+0x8]
    4479:	48 83 e4 e0          	and    rsp,0xffffffffffffffe0
    447d:	41 ff 72 f8          	push   QWORD PTR [r10-0x8]
    4481:	55                   	push   rbp
    4482:	48 89 e5             	mov    rbp,rsp
    4485:	41 54                	push   r12
    4487:	49 89 fc             	mov    r12,rdi
    448a:	41 52                	push   r10
    448c:	53                   	push   rbx
    448d:	48 89 f3             	mov    rbx,rsi
    4490:	48 81 ec f8 00 00 00 	sub    rsp,0xf8
    4497:	e8 64 1e 00 00       	call   6300 <get_count_to_words>
    449c:	48 83 f8 06          	cmp    rax,0x6
    44a0:	74 16                	je     44b8 <try_add_cylinder_to_world+0x48>
    44a2:	48 8d 65 e8          	lea    rsp,[rbp-0x18]
    44a6:	31 c0                	xor    eax,eax
    44a8:	5b                   	pop    rbx
    44a9:	5a                   	pop    rdx
    44aa:	41 5c                	pop    r12
    44ac:	5d                   	pop    rbp
    44ad:	48 8d 62 f8          	lea    rsp,[rdx-0x8]
    44b1:	c3                   	ret    
    44b2:	66 0f 1f 44 00 00    	nop    WORD PTR [rax+rax*1+0x0]
    44b8:	49 8b 7c 24 08       	mov    rdi,QWORD PTR [r12+0x8]
    44bd:	be 2c 00 00 00       	mov    esi,0x2c
    44c2:	e8 79 1d 00 00       	call   6240 <get_count_words>
    44c7:	48 83 f8 03          	cmp    rax,0x3
    44cb:	75 d5                	jne    44a2 <try_add_cylinder_to_world+0x32>
    44cd:	49 8b 7c 24 10       	mov    rdi,QWORD PTR [r12+0x10]
    44d2:	be 2c 00 00 00       	mov    esi,0x2c
    44d7:	e8 64 1d 00 00       	call   6240 <get_count_words>
    44dc:	48 83 f8 03          	cmp    rax,0x3
    44e0:	75 c0                	jne    44a2 <try_add_cylinder_to_world+0x32>
    44e2:	49 8b 7c 24 28       	mov    rdi,QWORD PTR [r12+0x28]
    44e7:	be 2c 00 00 00       	mov    esi,0x2c
    44ec:	e8 4f 1d 00 00       	call   6240 <get_count_words>
    44f1:	48 83 f8 03          	cmp    rax,0x3
    44f5:	75 ab                	jne    44a2 <try_add_cylinder_to_world+0x32>
    44f7:	48 8d b5 50 ff ff ff 	lea    rsi,[rbp-0xb0]
    44fe:	4c 89 e7             	mov    rdi,r12
    4501:	e8 da fe ff ff       	call   43e0 <is_invalid_value_in_cylinder>
    4506:	84 c0                	test   al,al
    4508:	75 98                	jne    44a2 <try_add_cylinder_to_world+0x32>
    450a:	c5 fa 7e 45 90       	vmovq  xmm0,QWORD PTR [rbp-0x70]
    450f:	c5 fa 7e 4d 98       	vmovq  xmm1,QWORD PTR [rbp-0x68]
    4514:	e8 97 2a 00 00       	call   6fb0 <normalize_vector3>
    4519:	48 8d bd f0 fe ff ff 	lea    rdi,[rbp-0x110]
    4520:	c5 f9 d6 45 90       	vmovq  QWORD PTR [rbp-0x70],xmm0
    4525:	c5 f9 d6 4d 98       	vmovq  QWORD PTR [rbp-0x68],xmm1
    452a:	e8 c1 0c 00 00       	call   51f0 <get_local_basis>
    452f:	ff 75 c8             	push   QWORD PTR [rbp-0x38]
    4532:	c5 f9 6f 85 f0 fe ff 	vmovdqa xmm0,XMMWORD PTR [rbp-0x110]
    4539:	ff 
    453a:	c5 f9 6f 8d 00 ff ff 	vmovdqa xmm1,XMMWORD PTR [rbp-0x100]
    4541:	ff 
    4542:	ff 75 c0             	push   QWORD PTR [rbp-0x40]
    4545:	c5 f9 6f 95 10 ff ff 	vmovdqa xmm2,XMMWORD PTR [rbp-0xf0]
    454c:	ff 
    454d:	ff 75 b8             	push   QWORD PTR [rbp-0x48]
    4550:	ff 75 b0             	push   QWORD PTR [rbp-0x50]
    4553:	ff 75 a8             	push   QWORD PTR [rbp-0x58]
    4556:	ff 75 a0             	push   QWORD PTR [rbp-0x60]
    4559:	c5 f9 7f 85 70 ff ff 	vmovdqa XMMWORD PTR [rbp-0x90],xmm0
    4560:	ff 
    4561:	c5 f9 7f 4d 80       	vmovdqa XMMWORD PTR [rbp-0x80],xmm1
    4566:	48 83 ec 30          	sub    rsp,0x30
    456a:	c5 f9 7f 55 90       	vmovdqa XMMWORD PTR [rbp-0x70],xmm2
    456f:	c5 fa 7f 54 24 20    	vmovdqu XMMWORD PTR [rsp+0x20],xmm2
    4575:	c5 fa 7f 4c 24 10    	vmovdqu XMMWORD PTR [rsp+0x10],xmm1
    457b:	c5 fa 7f 04 24       	vmovdqu XMMWORD PTR [rsp],xmm0
    4580:	ff b5 68 ff ff ff    	push   QWORD PTR [rbp-0x98]
    4586:	ff b5 60 ff ff ff    	push   QWORD PTR [rbp-0xa0]
    458c:	ff b5 58 ff ff ff    	push   QWORD PTR [rbp-0xa8]
    4592:	ff b5 50 ff ff ff    	push   QWORD PTR [rbp-0xb0]
    4598:	e8 03 f0 ff ff       	call   35a0 <copy_construction_to_cylinder>
    459d:	48 83 ec 80          	sub    rsp,0xffffffffffffff80
    45a1:	48 8d b5 48 ff ff ff 	lea    rsi,[rbp-0xb8]
    45a8:	48 8d bb c8 00 00 00 	lea    rdi,[rbx+0xc8]
    45af:	48 89 85 48 ff ff ff 	mov    QWORD PTR [rbp-0xb8],rax
    45b6:	ff 93 f0 00 00 00    	call   QWORD PTR [rbx+0xf0]
    45bc:	48 8d 65 e8          	lea    rsp,[rbp-0x18]
    45c0:	b8 01 00 00 00       	mov    eax,0x1
    45c5:	5b                   	pop    rbx
    45c6:	5a                   	pop    rdx
    45c7:	41 5c                	pop    r12
    45c9:	5d                   	pop    rbp
    45ca:	48 8d 62 f8          	lea    rsp,[rdx-0x8]
    45ce:	c3                   	ret    
    45cf:	90                   	nop

00000000000045d0 <delete_plane>:
    45d0:	f3 0f 1e fa          	endbr64 
    45d4:	e9 e7 df ff ff       	jmp    25c0 <free@plt>
    45d9:	0f 1f 80 00 00 00 00 	nop    DWORD PTR [rax+0x0]

00000000000045e0 <is_hit_plane>:
    45e0:	f3 0f 1e fa          	endbr64 
    45e4:	41 56                	push   r14
    45e6:	55                   	push   rbp
    45e7:	48 89 f5             	mov    rbp,rsi
    45ea:	53                   	push   rbx
    45eb:	48 89 fb             	mov    rbx,rdi
    45ee:	48 83 ec 20          	sub    rsp,0x20
    45f2:	c5 fa 7e 07          	vmovq  xmm0,QWORD PTR [rdi]
    45f6:	c5 fa 7e 4f 08       	vmovq  xmm1,QWORD PTR [rdi+0x8]
    45fb:	c5 f9 6f 67 40       	vmovdqa xmm4,XMMWORD PTR [rdi+0x40]
    4600:	c5 fa 7e 54 24 40    	vmovq  xmm2,QWORD PTR [rsp+0x40]
    4606:	c5 fa 7e 5c 24 48    	vmovq  xmm3,QWORD PTR [rsp+0x48]
    460c:	c5 f9 7f 24 24       	vmovdqa XMMWORD PTR [rsp],xmm4
    4611:	e8 ca 2a 00 00       	call   70e0 <subtract_vector3>
    4616:	c5 f9 6f d0          	vmovdqa xmm2,xmm0
    461a:	c5 f9 6f d9          	vmovdqa xmm3,xmm1
    461e:	c5 fa 7e 04 24       	vmovq  xmm0,QWORD PTR [rsp]
    4623:	c5 fa 7e 4c 24 08    	vmovq  xmm1,QWORD PTR [rsp+0x8]
    4629:	e8 72 2b 00 00       	call   71a0 <dot_product3x3>
    462e:	c5 fa 7e 4c 24 08    	vmovq  xmm1,QWORD PTR [rsp+0x8]
    4634:	c5 fa 7e 54 24 50    	vmovq  xmm2,QWORD PTR [rsp+0x50]
    463a:	c5 fa 7e 5c 24 58    	vmovq  xmm3,QWORD PTR [rsp+0x58]
    4640:	c4 c1 79 7e c6       	vmovd  r14d,xmm0
    4645:	c5 fa 7e 04 24       	vmovq  xmm0,QWORD PTR [rsp]
    464a:	e8 51 2b 00 00       	call   71a0 <dot_product3x3>
    464f:	c5 f0 57 c9          	vxorps xmm1,xmm1,xmm1
    4653:	c5 f8 2e c1          	vucomiss xmm0,xmm1
    4657:	7a 07                	jp     4660 <is_hit_plane+0x80>
    4659:	b8 00 00 00 00       	mov    eax,0x0
    465e:	74 5e                	je     46be <is_hit_plane+0xde>
    4660:	c4 c1 79 6e ee       	vmovd  xmm5,r14d
    4665:	31 c0                	xor    eax,eax
    4667:	c5 d2 5e c0          	vdivss xmm0,xmm5,xmm0
    466b:	c5 f8 2f c8          	vcomiss xmm1,xmm0
    466f:	73 4d                	jae    46be <is_hit_plane+0xde>
    4671:	c5 f8 2f 45 30       	vcomiss xmm0,DWORD PTR [rbp+0x30]
    4676:	73 46                	jae    46be <is_hit_plane+0xde>
    4678:	ff 74 24 58          	push   QWORD PTR [rsp+0x58]
    467c:	ff 74 24 58          	push   QWORD PTR [rsp+0x58]
    4680:	ff 74 24 58          	push   QWORD PTR [rsp+0x58]
    4684:	ff 74 24 58          	push   QWORD PTR [rsp+0x58]
    4688:	c5 fa 11 45 30       	vmovss DWORD PTR [rbp+0x30],xmm0
    468d:	e8 2e 01 00 00       	call   47c0 <get_point_in_ray>
    4692:	c5 f9 6f 74 24 20    	vmovdqa xmm6,XMMWORD PTR [rsp+0x20]
    4698:	c5 f9 6f 7b 10       	vmovdqa xmm7,XMMWORD PTR [rbx+0x10]
    469d:	48 89 5d 38          	mov    QWORD PTR [rbp+0x38],rbx
    46a1:	c5 f9 d6 45 00       	vmovq  QWORD PTR [rbp+0x0],xmm0
    46a6:	48 83 c4 20          	add    rsp,0x20
    46aa:	b8 01 00 00 00       	mov    eax,0x1
    46af:	c5 f9 d6 4d 08       	vmovq  QWORD PTR [rbp+0x8],xmm1
    46b4:	c5 f9 7f 75 10       	vmovdqa XMMWORD PTR [rbp+0x10],xmm6
    46b9:	c5 f9 7f 7d 20       	vmovdqa XMMWORD PTR [rbp+0x20],xmm7
    46be:	48 83 c4 20          	add    rsp,0x20
    46c2:	5b                   	pop    rbx
    46c3:	5d                   	pop    rbp
    46c4:	41 5e                	pop    r14
    46c6:	c3                   	ret    
    46c7:	66 0f 1f 84 00 00 00 	nop    WORD PTR [rax+rax*1+0x0]
    46ce:	00 00 

00000000000046d0 <copy_construction_to_plane>:
    46d0:	f3 0f 1e fa          	endbr64 
    46d4:	55                   	push   rbp
    46d5:	bf 70 00 00 00       	mov    edi,0x70
    46da:	48 89 e5             	mov    rbp,rsp
    46dd:	48 83 e4 e0          	and    rsp,0xffffffffffffffe0
    46e1:	e8 5a de ff ff       	call   2540 <malloc@plt>
    46e6:	c5 f9 6f 55 10       	vmovdqa xmm2,XMMWORD PTR [rbp+0x10]
    46eb:	c5 f9 6f 5d 20       	vmovdqa xmm3,XMMWORD PTR [rbp+0x20]
    46f0:	48 8d 0d e9 fe ff ff 	lea    rcx,[rip+0xfffffffffffffee9]        # 45e0 <is_hit_plane>
    46f7:	c4 e1 f9 6e c1       	vmovq  xmm0,rcx
    46fc:	c5 f9 6f 65 30       	vmovdqa xmm4,XMMWORD PTR [rbp+0x30]
    4701:	c5 f9 6f 6d 40       	vmovdqa xmm5,XMMWORD PTR [rbp+0x40]
    4706:	48 8d 15 c3 fe ff ff 	lea    rdx,[rip+0xfffffffffffffec3]        # 45d0 <delete_plane>
    470d:	c5 f9 6f 75 50       	vmovdqa xmm6,XMMWORD PTR [rbp+0x50]
    4712:	c5 fa 7e 3d 7e c8 00 	vmovq  xmm7,QWORD PTR [rip+0xc87e]        # 10f98 <_GLOBAL_OFFSET_TABLE_+0x228>
    4719:	00 
    471a:	c4 63 f9 22 c2 01    	vpinsrq xmm8,xmm0,rdx,0x1
    4720:	c5 f9 7f 10          	vmovdqa XMMWORD PTR [rax],xmm2
    4724:	c4 e3 c1 22 0d 72 c8 	vpinsrq xmm1,xmm7,QWORD PTR [rip+0xc872],0x1        # 10fa0 <_GLOBAL_OFFSET_TABLE_+0x230>
    472b:	00 00 01 
    472e:	c5 f9 7f 58 10       	vmovdqa XMMWORD PTR [rax+0x10],xmm3
    4733:	c5 f9 7f 60 20       	vmovdqa XMMWORD PTR [rax+0x20],xmm4
    4738:	c4 63 3d 38 c9 01    	vinserti128 ymm9,ymm8,xmm1,0x1
    473e:	c5 f9 7f 68 30       	vmovdqa XMMWORD PTR [rax+0x30],xmm5
    4743:	c5 f9 7f 70 40       	vmovdqa XMMWORD PTR [rax+0x40],xmm6
    4748:	c5 7e 7f 48 50       	vmovdqu YMMWORD PTR [rax+0x50],ymm9
    474d:	c5 f8 77             	vzeroupper 
    4750:	c9                   	leave  
    4751:	c3                   	ret    
    4752:	66 2e 0f 1f 84 00 00 	cs nop WORD PTR [rax+rax*1+0x0]
    4759:	00 00 00 
    475c:	0f 1f 40 00          	nop    DWORD PTR [rax+0x0]

0000000000004760 <update_scale_diameter_plane>:
    4760:	f3 0f 1e fa          	endbr64 
    4764:	c3                   	ret    
    4765:	66 66 2e 0f 1f 84 00 	data16 cs nop WORD PTR [rax+rax*1+0x0]
    476c:	00 00 00 00 

0000000000004770 <update_scale_height_plane>:
    4770:	f3 0f 1e fa          	endbr64 
    4774:	c3                   	ret    
    4775:	66 2e 0f 1f 84 00 00 	cs nop WORD PTR [rax+rax*1+0x0]
    477c:	00 00 00 
    477f:	90                   	nop

0000000000004780 <get_ray>:
    4780:	f3 0f 1e fa          	endbr64 
    4784:	c5 f9 d6 44 24 e8    	vmovq  QWORD PTR [rsp-0x18],xmm0
    478a:	48 89 f8             	mov    rax,rdi
    478d:	c5 f9 d6 4c 24 f0    	vmovq  QWORD PTR [rsp-0x10],xmm1
    4793:	c5 f9 6f 64 24 e8    	vmovdqa xmm4,XMMWORD PTR [rsp-0x18]
    4799:	c5 f9 d6 54 24 d8    	vmovq  QWORD PTR [rsp-0x28],xmm2
    479f:	c5 f9 d6 5c 24 e0    	vmovq  QWORD PTR [rsp-0x20],xmm3
    47a5:	c5 f9 6f 6c 24 d8    	vmovdqa xmm5,XMMWORD PTR [rsp-0x28]
    47ab:	c5 f9 7f 27          	vmovdqa XMMWORD PTR [rdi],xmm4
    47af:	c5 f9 7f 6f 10       	vmovdqa XMMWORD PTR [rdi+0x10],xmm5
    47b4:	c3                   	ret    
    47b5:	66 66 2e 0f 1f 84 00 	data16 cs nop WORD PTR [rax+rax*1+0x0]
    47bc:	00 00 00 00 

00000000000047c0 <get_point_in_ray>:
    47c0:	f3 0f 1e fa          	endbr64 
    47c4:	48 83 ec 28          	sub    rsp,0x28
    47c8:	c5 f8 28 d0          	vmovaps xmm2,xmm0
    47cc:	c5 fa 7e 4c 24 48    	vmovq  xmm1,QWORD PTR [rsp+0x48]
    47d2:	c5 fa 7e 44 24 40    	vmovq  xmm0,QWORD PTR [rsp+0x40]
    47d8:	e8 43 29 00 00       	call   7120 <multiply_vector3>
    47dd:	c5 f9 6f d0          	vmovdqa xmm2,xmm0
    47e1:	c5 f9 6f d9          	vmovdqa xmm3,xmm1
    47e5:	c5 fa 7e 44 24 30    	vmovq  xmm0,QWORD PTR [rsp+0x30]
    47eb:	c5 fa 7e 4c 24 38    	vmovq  xmm1,QWORD PTR [rsp+0x38]
    47f1:	48 83 c4 28          	add    rsp,0x28
    47f5:	e9 a6 28 00 00       	jmp    70a0 <add_vector3>
    47fa:	66 0f 1f 44 00 00    	nop    WORD PTR [rax+rax*1+0x0]

0000000000004800 <get_ray_mappied_to_pixel>:
    4800:	f3 0f 1e fa          	endbr64 
    4804:	41 54                	push   r12
    4806:	49 89 fc             	mov    r12,rdi
    4809:	48 83 ec 60          	sub    rsp,0x60
    480d:	c5 fa 11 44 24 0c    	vmovss DWORD PTR [rsp+0xc],xmm0
    4813:	c5 f8 28 c1          	vmovaps xmm0,xmm1
    4817:	e8 04 12 00 00       	call   5a20 <get_radian>
    481c:	e8 6f dc ff ff       	call   2490 <tanf@plt>
    4821:	c5 fa 7e 8c 24 98 00 	vmovq  xmm1,QWORD PTR [rsp+0x98]
    4828:	00 00 
    482a:	c5 f8 28 d0          	vmovaps xmm2,xmm0
    482e:	c5 fa 7e 84 24 90 00 	vmovq  xmm0,QWORD PTR [rsp+0x90]
    4835:	00 00 
    4837:	e8 e4 28 00 00       	call   7120 <multiply_vector3>
    483c:	c5 f9 d6 44 24 10    	vmovq  QWORD PTR [rsp+0x10],xmm0
    4842:	c5 fa 10 44 24 0c    	vmovss xmm0,DWORD PTR [rsp+0xc]
    4848:	c5 f9 d6 4c 24 18    	vmovq  QWORD PTR [rsp+0x18],xmm1
    484e:	e8 cd 11 00 00       	call   5a20 <get_radian>
    4853:	e8 38 dc ff ff       	call   2490 <tanf@plt>
    4858:	c5 fa 7e 8c 24 88 00 	vmovq  xmm1,QWORD PTR [rsp+0x88]
    485f:	00 00 
    4861:	c5 f8 28 d0          	vmovaps xmm2,xmm0
    4865:	c5 fa 7e 84 24 80 00 	vmovq  xmm0,QWORD PTR [rsp+0x80]
    486c:	00 00 
    486e:	e8 ad 28 00 00       	call   7120 <multiply_vector3>
    4873:	c5 f9 6f d0          	vmovdqa xmm2,xmm0
    4877:	c5 f9 6f d9          	vmovdqa xmm3,xmm1
    487b:	c5 fa 7e 44 24 10    	vmovq  xmm0,QWORD PTR [rsp+0x10]
    4881:	c5 fa 7e 4c 24 18    	vmovq  xmm1,QWORD PTR [rsp+0x18]
    4887:	e8 14 28 00 00       	call   70a0 <add_vector3>
    488c:	c5 f9 6f d0          	vmovdqa xmm2,xmm0
    4890:	c5 f9 6f d9          	vmovdqa xmm3,xmm1
    4894:	c5 fa 7e 84 24 a0 00 	vmovq  xmm0,QWORD PTR [rsp+0xa0]
    489b:	00 00 
    489d:	c5 fa 7e 8c 24 a8 00 	vmovq  xmm1,QWORD PTR [rsp+0xa8]
    48a4:	00 00 
    48a6:	e8 f5 27 00 00       	call   70a0 <add_vector3>
    48ab:	e8 00 27 00 00       	call   6fb0 <normalize_vector3>
    48b0:	4c 89 e7             	mov    rdi,r12
    48b3:	c5 f9 6f d0          	vmovdqa xmm2,xmm0
    48b7:	c5 f9 6f d9          	vmovdqa xmm3,xmm1
    48bb:	c5 fa 7e 44 24 70    	vmovq  xmm0,QWORD PTR [rsp+0x70]
    48c1:	c5 fa 7e 4c 24 78    	vmovq  xmm1,QWORD PTR [rsp+0x78]
    48c7:	e8 b4 fe ff ff       	call   4780 <get_ray>
    48cc:	48 83 c4 60          	add    rsp,0x60
    48d0:	4c 89 e0             	mov    rax,r12
    48d3:	41 5c                	pop    r12
    48d5:	c3                   	ret    
    48d6:	66 2e 0f 1f 84 00 00 	cs nop WORD PTR [rax+rax*1+0x0]
    48dd:	00 00 00 

00000000000048e0 <load_pixel_color>:
    48e0:	f3 0f 1e fa          	endbr64 
    48e4:	4c 8d 54 24 08       	lea    r10,[rsp+0x8]
    48e9:	48 83 e4 e0          	and    rsp,0xffffffffffffffe0
    48ed:	41 ff 72 f8          	push   QWORD PTR [r10-0x8]
    48f1:	55                   	push   rbp
    48f2:	48 89 e5             	mov    rbp,rsp
    48f5:	41 57                	push   r15
    48f7:	41 56                	push   r14
    48f9:	4c 8d 75 90          	lea    r14,[rbp-0x70]
    48fd:	41 55                	push   r13
    48ff:	49 89 fd             	mov    r13,rdi
    4902:	48 8d bd 10 ff ff ff 	lea    rdi,[rbp-0xf0]
    4909:	41 54                	push   r12
    490b:	4d 89 d4             	mov    r12,r10
    490e:	4d 8d bd c8 00 00 00 	lea    r15,[r13+0xc8]
    4915:	41 52                	push   r10
    4917:	53                   	push   rbx
    4918:	31 db                	xor    ebx,ebx
    491a:	48 81 ec c0 00 00 00 	sub    rsp,0xc0
    4921:	e8 fa ef ff ff       	call   3920 <get_hit_record>
    4926:	c5 f9 6f 95 10 ff ff 	vmovdqa xmm2,XMMWORD PTR [rbp-0xf0]
    492d:	ff 
    492e:	c5 f9 6f 9d 20 ff ff 	vmovdqa xmm3,XMMWORD PTR [rbp-0xe0]
    4935:	ff 
    4936:	c5 f9 6f a5 30 ff ff 	vmovdqa xmm4,XMMWORD PTR [rbp-0xd0]
    493d:	ff 
    493e:	c5 f9 6f ad 40 ff ff 	vmovdqa xmm5,XMMWORD PTR [rbp-0xc0]
    4945:	ff 
    4946:	49 83 bd d0 00 00 00 	cmp    QWORD PTR [r13+0xd0],0x0
    494d:	00 
    494e:	c5 f9 7f 55 90       	vmovdqa XMMWORD PTR [rbp-0x70],xmm2
    4953:	c5 f9 7f 5d a0       	vmovdqa XMMWORD PTR [rbp-0x60],xmm3
    4958:	c5 f9 7f 65 b0       	vmovdqa XMMWORD PTR [rbp-0x50],xmm4
    495d:	c5 f9 7f 6d c0       	vmovdqa XMMWORD PTR [rbp-0x40],xmm5
    4962:	74 3f                	je     49a3 <load_pixel_color+0xc3>
    4964:	0f 1f 40 00          	nop    DWORD PTR [rax+0x0]
    4968:	48 89 de             	mov    rsi,rbx
    496b:	4c 89 ff             	mov    rdi,r15
    496e:	48 83 c3 01          	add    rbx,0x1
    4972:	e8 09 25 00 00       	call   6e80 <get_element_or_null_in_list>
    4977:	4c 89 f6             	mov    rsi,r14
    497a:	48 8b 00             	mov    rax,QWORD PTR [rax]
    497d:	41 ff 74 24 18       	push   QWORD PTR [r12+0x18]
    4982:	41 ff 74 24 10       	push   QWORD PTR [r12+0x10]
    4987:	41 ff 74 24 08       	push   QWORD PTR [r12+0x8]
    498c:	48 89 c7             	mov    rdi,rax
    498f:	41 ff 34 24          	push   QWORD PTR [r12]
    4993:	ff 50 50             	call   QWORD PTR [rax+0x50]
    4996:	48 83 c4 20          	add    rsp,0x20
    499a:	49 39 9d d0 00 00 00 	cmp    QWORD PTR [r13+0xd0],rbx
    49a1:	77 c5                	ja     4968 <load_pixel_color+0x88>
    49a3:	c5 fa 10 45 c0       	vmovss xmm0,DWORD PTR [rbp-0x40]
    49a8:	c5 f8 2e 05 18 78 00 	vucomiss xmm0,DWORD PTR [rip+0x7818]        # c1c8 <CSWTCH.3+0x108>
    49af:	00 
    49b0:	7a 06                	jp     49b8 <load_pixel_color+0xd8>
    49b2:	0f 84 58 01 00 00    	je     4b10 <load_pixel_color+0x230>
    49b8:	ff 75 c8             	push   QWORD PTR [rbp-0x38]
    49bb:	ff 75 c0             	push   QWORD PTR [rbp-0x40]
    49be:	ff 75 b8             	push   QWORD PTR [rbp-0x48]
    49c1:	ff 75 b0             	push   QWORD PTR [rbp-0x50]
    49c4:	ff 75 a8             	push   QWORD PTR [rbp-0x58]
    49c7:	ff 75 a0             	push   QWORD PTR [rbp-0x60]
    49ca:	ff 75 98             	push   QWORD PTR [rbp-0x68]
    49cd:	ff 75 90             	push   QWORD PTR [rbp-0x70]
    49d0:	41 ff 75 78          	push   QWORD PTR [r13+0x78]
    49d4:	41 ff 75 70          	push   QWORD PTR [r13+0x70]
    49d8:	41 ff 75 68          	push   QWORD PTR [r13+0x68]
    49dc:	41 ff 75 60          	push   QWORD PTR [r13+0x60]
    49e0:	e8 fb 10 00 00       	call   5ae0 <load_ambient_color>
    49e5:	48 83 c4 60          	add    rsp,0x60
    49e9:	ff 75 c8             	push   QWORD PTR [rbp-0x38]
    49ec:	ff 75 c0             	push   QWORD PTR [rbp-0x40]
    49ef:	ff 75 b8             	push   QWORD PTR [rbp-0x48]
    49f2:	ff 75 b0             	push   QWORD PTR [rbp-0x50]
    49f5:	ff 75 a8             	push   QWORD PTR [rbp-0x58]
    49f8:	ff 75 a0             	push   QWORD PTR [rbp-0x60]
    49fb:	ff 75 98             	push   QWORD PTR [rbp-0x68]
    49fe:	ff 75 90             	push   QWORD PTR [rbp-0x70]
    4a01:	41 ff b5 b8 00 00 00 	push   QWORD PTR [r13+0xb8]
    4a08:	41 ff b5 b0 00 00 00 	push   QWORD PTR [r13+0xb0]
    4a0f:	41 ff b5 a8 00 00 00 	push   QWORD PTR [r13+0xa8]
    4a16:	41 ff b5 a0 00 00 00 	push   QWORD PTR [r13+0xa0]
    4a1d:	41 ff b5 98 00 00 00 	push   QWORD PTR [r13+0x98]
    4a24:	41 ff b5 90 00 00 00 	push   QWORD PTR [r13+0x90]
    4a2b:	48 89 85 70 ff ff ff 	mov    QWORD PTR [rbp-0x90],rax
    4a32:	48 89 95 78 ff ff ff 	mov    QWORD PTR [rbp-0x88],rdx
    4a39:	e8 02 10 00 00       	call   5a40 <load_diffuse_color>
    4a3e:	48 8b 8d 78 ff ff ff 	mov    rcx,QWORD PTR [rbp-0x88]
    4a45:	48 83 c4 70          	add    rsp,0x70
    4a49:	48 89 d6             	mov    rsi,rdx
    4a4c:	48 89 55 88          	mov    QWORD PTR [rbp-0x78],rdx
    4a50:	48 8b 95 70 ff ff ff 	mov    rdx,QWORD PTR [rbp-0x90]
    4a57:	48 89 c7             	mov    rdi,rax
    4a5a:	48 89 7d 80          	mov    QWORD PTR [rbp-0x80],rdi
    4a5e:	e8 2d 0f 00 00       	call   5990 <add_color>
    4a63:	48 8b 75 c8          	mov    rsi,QWORD PTR [rbp-0x38]
    4a67:	c5 fa 7e 45 90       	vmovq  xmm0,QWORD PTR [rbp-0x70]
    4a6c:	4c 89 ef             	mov    rdi,r13
    4a6f:	c5 fa 7e 4d 98       	vmovq  xmm1,QWORD PTR [rbp-0x68]
    4a74:	48 89 85 60 ff ff ff 	mov    QWORD PTR [rbp-0xa0],rax
    4a7b:	41 89 c7             	mov    r15d,eax
    4a7e:	48 89 95 68 ff ff ff 	mov    QWORD PTR [rbp-0x98],rdx
    4a85:	44 8b a5 64 ff ff ff 	mov    r12d,DWORD PTR [rbp-0x9c]
    4a8c:	44 8b b5 68 ff ff ff 	mov    r14d,DWORD PTR [rbp-0x98]
    4a93:	e8 c8 03 00 00       	call   4e60 <is_shadowed_surface>
    4a98:	84 c0                	test   al,al
    4a9a:	75 44                	jne    4ae0 <load_pixel_color+0x200>
    4a9c:	c4 c1 79 6e f7       	vmovd  xmm6,r15d
    4aa1:	44 89 b5 68 ff ff ff 	mov    DWORD PTR [rbp-0x98],r14d
    4aa8:	48 8b b5 68 ff ff ff 	mov    rsi,QWORD PTR [rbp-0x98]
    4aaf:	c4 c3 49 22 cc 01    	vpinsrd xmm1,xmm6,r12d,0x1
    4ab5:	c4 e1 f9 7e cf       	vmovq  rdi,xmm1
    4aba:	c5 f9 d6 8d 60 ff ff 	vmovq  QWORD PTR [rbp-0xa0],xmm1
    4ac1:	ff 
    4ac2:	e8 a9 0e 00 00       	call   5970 <convert_colors>
    4ac7:	48 8d 65 d0          	lea    rsp,[rbp-0x30]
    4acb:	5b                   	pop    rbx
    4acc:	59                   	pop    rcx
    4acd:	41 5c                	pop    r12
    4acf:	41 5d                	pop    r13
    4ad1:	41 5e                	pop    r14
    4ad3:	41 5f                	pop    r15
    4ad5:	5d                   	pop    rbp
    4ad6:	48 8d 61 f8          	lea    rsp,[rcx-0x8]
    4ada:	c3                   	ret    
    4adb:	0f 1f 44 00 00       	nop    DWORD PTR [rax+rax*1+0x0]
    4ae0:	44 89 f3             	mov    ebx,r14d
    4ae3:	45 89 fa             	mov    r10d,r15d
    4ae6:	45 89 e5             	mov    r13d,r12d
    4ae9:	c1 eb 1f             	shr    ebx,0x1f
    4aec:	41 c1 ea 1f          	shr    r10d,0x1f
    4af0:	44 01 f3             	add    ebx,r14d
    4af3:	41 c1 ed 1f          	shr    r13d,0x1f
    4af7:	45 01 d7             	add    r15d,r10d
    4afa:	d1 fb                	sar    ebx,1
    4afc:	45 01 ec             	add    r12d,r13d
    4aff:	41 d1 ff             	sar    r15d,1
    4b02:	41 d1 fc             	sar    r12d,1
    4b05:	41 89 de             	mov    r14d,ebx
    4b08:	eb 92                	jmp    4a9c <load_pixel_color+0x1bc>
    4b0a:	66 0f 1f 44 00 00    	nop    WORD PTR [rax+rax*1+0x0]
    4b10:	31 d2                	xor    edx,edx
    4b12:	31 f6                	xor    esi,esi
    4b14:	31 ff                	xor    edi,edi
    4b16:	e8 55 28 00 00       	call   7370 <get_ivector3>
    4b1b:	48 89 d6             	mov    rsi,rdx
    4b1e:	48 89 c7             	mov    rdi,rax
    4b21:	48 89 85 60 ff ff ff 	mov    QWORD PTR [rbp-0xa0],rax
    4b28:	48 89 95 68 ff ff ff 	mov    QWORD PTR [rbp-0x98],rdx
    4b2f:	e8 3c 0e 00 00       	call   5970 <convert_colors>
    4b34:	eb 91                	jmp    4ac7 <load_pixel_color+0x1e7>
    4b36:	66 2e 0f 1f 84 00 00 	cs nop WORD PTR [rax+rax*1+0x0]
    4b3d:	00 00 00 

0000000000004b40 <render>:
    4b40:	f3 0f 1e fa          	endbr64 
    4b44:	41 57                	push   r15
    4b46:	41 56                	push   r14
    4b48:	41 55                	push   r13
    4b4a:	41 54                	push   r12
    4b4c:	55                   	push   rbp
    4b4d:	53                   	push   rbx
    4b4e:	48 89 f3             	mov    rbx,rsi
    4b51:	48 83 ec 38          	sub    rsp,0x38
    4b55:	48 8b 6e 30          	mov    rbp,QWORD PTR [rsi+0x30]
    4b59:	48 85 ed             	test   rbp,rbp
    4b5c:	0f 84 97 01 00 00    	je     4cf9 <render+0x1b9>
    4b62:	49 89 fe             	mov    r14,rdi
    4b65:	c4 41 28 57 d2       	vxorps xmm10,xmm10,xmm10
    4b6a:	4c 8d 64 24 10       	lea    r12,[rsp+0x10]
    4b6f:	45 31 ed             	xor    r13d,r13d
    4b72:	66 0f 1f 44 00 00    	nop    WORD PTR [rax+rax*1+0x0]
    4b78:	c4 c1 7a 10 66 48    	vmovss xmm4,DWORD PTR [r14+0x48]
    4b7e:	4d 85 ed             	test   r13,r13
    4b81:	0f 88 99 01 00 00    	js     4d20 <render+0x1e0>
    4b87:	c4 c1 aa 2a ed       	vcvtsi2ss xmm5,xmm10,r13
    4b8c:	48 85 ed             	test   rbp,rbp
    4b8f:	0f 88 ac 01 00 00    	js     4d41 <render+0x201>
    4b95:	c4 e1 aa 2a dd       	vcvtsi2ss xmm3,xmm10,rbp
    4b9a:	c5 d2 5e d3          	vdivss xmm2,xmm5,xmm3
    4b9e:	c5 f8 28 c4          	vmovaps xmm0,xmm4
    4ba2:	45 31 ff             	xor    r15d,r15d
    4ba5:	44 89 ed             	mov    ebp,r13d
    4ba8:	c5 d8 57 0d 80 75 00 	vxorps xmm1,xmm4,XMMWORD PTR [rip+0x7580]        # c130 <CSWTCH.3+0x70>
    4baf:	00 
    4bb0:	e8 db 1d 00 00       	call   6990 <lerp>
    4bb5:	48 8b 43 28          	mov    rax,QWORD PTR [rbx+0x28]
    4bb9:	44 89 6c 24 0c       	mov    DWORD PTR [rsp+0xc],r13d
    4bbe:	c4 41 28 57 d2       	vxorps xmm10,xmm10,xmm10
    4bc3:	c5 fa 11 44 24 08    	vmovss DWORD PTR [rsp+0x8],xmm0
    4bc9:	48 85 c0             	test   rax,rax
    4bcc:	0f 85 c7 00 00 00    	jne    4c99 <render+0x159>
    4bd2:	e9 11 01 00 00       	jmp    4ce8 <render+0x1a8>
    4bd7:	66 0f 1f 84 00 00 00 	nop    WORD PTR [rax+rax*1+0x0]
    4bde:	00 00 
    4be0:	c4 c1 aa 2a ff       	vcvtsi2ss xmm7,xmm10,r15
    4be5:	48 85 c0             	test   rax,rax
    4be8:	0f 88 dc 00 00 00    	js     4cca <render+0x18a>
    4bee:	c4 61 aa 2a c8       	vcvtsi2ss xmm9,xmm10,rax
    4bf3:	c4 c1 42 5e d1       	vdivss xmm2,xmm7,xmm9
    4bf8:	c5 f0 57 05 30 75 00 	vxorps xmm0,xmm1,XMMWORD PTR [rip+0x7530]        # c130 <CSWTCH.3+0x70>
    4bff:	00 
    4c00:	e8 8b 1d 00 00       	call   6990 <lerp>
    4c05:	41 ff 76 48          	push   QWORD PTR [r14+0x48]
    4c09:	4c 89 e7             	mov    rdi,r12
    4c0c:	41 ff 76 40          	push   QWORD PTR [r14+0x40]
    4c10:	41 ff 76 38          	push   QWORD PTR [r14+0x38]
    4c14:	41 ff 76 30          	push   QWORD PTR [r14+0x30]
    4c18:	41 ff 76 28          	push   QWORD PTR [r14+0x28]
    4c1c:	41 ff 76 20          	push   QWORD PTR [r14+0x20]
    4c20:	41 ff 76 18          	push   QWORD PTR [r14+0x18]
    4c24:	41 ff 76 10          	push   QWORD PTR [r14+0x10]
    4c28:	41 ff 76 08          	push   QWORD PTR [r14+0x8]
    4c2c:	41 ff 36             	push   QWORD PTR [r14]
    4c2f:	c5 fa 10 4c 24 58    	vmovss xmm1,DWORD PTR [rsp+0x58]
    4c35:	e8 c6 fb ff ff       	call   4800 <get_ray_mappied_to_pixel>
    4c3a:	48 83 c4 50          	add    rsp,0x50
    4c3e:	4c 89 f7             	mov    rdi,r14
    4c41:	ff 74 24 28          	push   QWORD PTR [rsp+0x28]
    4c45:	ff 74 24 28          	push   QWORD PTR [rsp+0x28]
    4c49:	ff 74 24 28          	push   QWORD PTR [rsp+0x28]
    4c4d:	ff 74 24 28          	push   QWORD PTR [rsp+0x28]
    4c51:	e8 8a fc ff ff       	call   48e0 <load_pixel_color>
    4c56:	89 e9                	mov    ecx,ebp
    4c58:	48 83 c4 20          	add    rsp,0x20
    4c5c:	c4 41 28 57 d2       	vxorps xmm10,xmm10,xmm10
    4c61:	44 09 f9             	or     ecx,r15d
    4c64:	41 89 c2             	mov    r10d,eax
    4c67:	48 8b 43 28          	mov    rax,QWORD PTR [rbx+0x28]
    4c6b:	78 23                	js     4c90 <render+0x150>
    4c6d:	3b 6b 30             	cmp    ebp,DWORD PTR [rbx+0x30]
    4c70:	7d 1e                	jge    4c90 <render+0x150>
    4c72:	41 39 c7             	cmp    r15d,eax
    4c75:	7d 19                	jge    4c90 <render+0x150>
    4c77:	8b 74 24 0c          	mov    esi,DWORD PTR [rsp+0xc]
    4c7b:	48 8b 53 10          	mov    rdx,QWORD PTR [rbx+0x10]
    4c7f:	0f af f0             	imul   esi,eax
    4c82:	48 8b 7a 30          	mov    rdi,QWORD PTR [rdx+0x30]
    4c86:	44 01 fe             	add    esi,r15d
    4c89:	4c 63 c6             	movsxd r8,esi
    4c8c:	46 89 14 87          	mov    DWORD PTR [rdi+r8*4],r10d
    4c90:	49 83 c7 01          	add    r15,0x1
    4c94:	49 39 c7             	cmp    r15,rax
    4c97:	73 4f                	jae    4ce8 <render+0x1a8>
    4c99:	c4 c1 7a 10 4e 44    	vmovss xmm1,DWORD PTR [r14+0x44]
    4c9f:	4d 85 ff             	test   r15,r15
    4ca2:	0f 89 38 ff ff ff    	jns    4be0 <render+0xa0>
    4ca8:	4c 89 ff             	mov    rdi,r15
    4cab:	4d 89 f8             	mov    r8,r15
    4cae:	48 d1 ef             	shr    rdi,1
    4cb1:	41 83 e0 01          	and    r8d,0x1
    4cb5:	4c 09 c7             	or     rdi,r8
    4cb8:	c4 e1 aa 2a f7       	vcvtsi2ss xmm6,xmm10,rdi
    4cbd:	c5 ca 58 fe          	vaddss xmm7,xmm6,xmm6
    4cc1:	48 85 c0             	test   rax,rax
    4cc4:	0f 89 24 ff ff ff    	jns    4bee <render+0xae>
    4cca:	49 89 c1             	mov    r9,rax
    4ccd:	83 e0 01             	and    eax,0x1
    4cd0:	49 d1 e9             	shr    r9,1
    4cd3:	4c 09 c8             	or     rax,r9
    4cd6:	c4 61 aa 2a c0       	vcvtsi2ss xmm8,xmm10,rax
    4cdb:	c4 41 3a 58 c8       	vaddss xmm9,xmm8,xmm8
    4ce0:	e9 0e ff ff ff       	jmp    4bf3 <render+0xb3>
    4ce5:	0f 1f 00             	nop    DWORD PTR [rax]
    4ce8:	48 8b 6b 30          	mov    rbp,QWORD PTR [rbx+0x30]
    4cec:	49 83 c5 01          	add    r13,0x1
    4cf0:	4c 39 ed             	cmp    rbp,r13
    4cf3:	0f 87 7f fe ff ff    	ja     4b78 <render+0x38>
    4cf9:	48 8b 53 10          	mov    rdx,QWORD PTR [rbx+0x10]
    4cfd:	48 8b 73 08          	mov    rsi,QWORD PTR [rbx+0x8]
    4d01:	45 31 c0             	xor    r8d,r8d
    4d04:	31 c9                	xor    ecx,ecx
    4d06:	48 8b 3b             	mov    rdi,QWORD PTR [rbx]
    4d09:	48 83 c4 38          	add    rsp,0x38
    4d0d:	5b                   	pop    rbx
    4d0e:	5d                   	pop    rbp
    4d0f:	41 5c                	pop    r12
    4d11:	41 5d                	pop    r13
    4d13:	41 5e                	pop    r14
    4d15:	41 5f                	pop    r15
    4d17:	e9 74 62 00 00       	jmp    af90 <mlx_put_image_to_window>
    4d1c:	0f 1f 40 00          	nop    DWORD PTR [rax+0x0]
    4d20:	4c 89 e9             	mov    rcx,r13
    4d23:	4c 89 ee             	mov    rsi,r13
    4d26:	48 d1 e9             	shr    rcx,1
    4d29:	83 e6 01             	and    esi,0x1
    4d2c:	48 09 f1             	or     rcx,rsi
    4d2f:	c4 e1 aa 2a d1       	vcvtsi2ss xmm2,xmm10,rcx
    4d34:	c5 ea 58 ea          	vaddss xmm5,xmm2,xmm2
    4d38:	48 85 ed             	test   rbp,rbp
    4d3b:	0f 89 54 fe ff ff    	jns    4b95 <render+0x55>
    4d41:	48 89 ea             	mov    rdx,rbp
    4d44:	83 e5 01             	and    ebp,0x1
    4d47:	48 d1 ea             	shr    rdx,1
    4d4a:	48 09 d5             	or     rbp,rdx
    4d4d:	c4 e1 aa 2a c5       	vcvtsi2ss xmm0,xmm10,rbp
    4d52:	c5 fa 58 d8          	vaddss xmm3,xmm0,xmm0
    4d56:	e9 3f fe ff ff       	jmp    4b9a <render+0x5a>
    4d5b:	0f 1f 44 00 00       	nop    DWORD PTR [rax+rax*1+0x0]

0000000000004d60 <is_collision>:
    4d60:	f3 0f 1e fa          	endbr64 
    4d64:	c5 fa 10 44 24 38    	vmovss xmm0,DWORD PTR [rsp+0x38]
    4d6a:	c5 f8 2e 05 56 74 00 	vucomiss xmm0,DWORD PTR [rip+0x7456]        # c1c8 <CSWTCH.3+0x108>
    4d71:	00 
    4d72:	ba 01 00 00 00       	mov    edx,0x1
    4d77:	0f 9a c0             	setp   al
    4d7a:	0f 45 c2             	cmovne eax,edx
    4d7d:	c3                   	ret    
    4d7e:	66 90                	xchg   ax,ax

0000000000004d80 <put_color_in_image_frame>:
    4d80:	f3 0f 1e fa          	endbr64 
    4d84:	89 d0                	mov    eax,edx
    4d86:	09 f0                	or     eax,esi
    4d88:	78 1f                	js     4da9 <put_color_in_image_frame+0x29>
    4d8a:	3b 57 30             	cmp    edx,DWORD PTR [rdi+0x30]
    4d8d:	7d 1a                	jge    4da9 <put_color_in_image_frame+0x29>
    4d8f:	48 8b 47 28          	mov    rax,QWORD PTR [rdi+0x28]
    4d93:	39 c6                	cmp    esi,eax
    4d95:	7d 12                	jge    4da9 <put_color_in_image_frame+0x29>
    4d97:	0f af c2             	imul   eax,edx
    4d9a:	48 8b 7f 10          	mov    rdi,QWORD PTR [rdi+0x10]
    4d9e:	48 8b 57 30          	mov    rdx,QWORD PTR [rdi+0x30]
    4da2:	01 f0                	add    eax,esi
    4da4:	48 98                	cdqe   
    4da6:	89 0c 82             	mov    DWORD PTR [rdx+rax*4],ecx
    4da9:	c3                   	ret    
    4daa:	66 0f 1f 44 00 00    	nop    WORD PTR [rax+rax*1+0x0]

0000000000004db0 <reflect_light>:
    4db0:	f3 0f 1e fa          	endbr64 
    4db4:	55                   	push   rbp
    4db5:	48 89 f8             	mov    rax,rdi
    4db8:	48 c1 ef 20          	shr    rdi,0x20
    4dbc:	48 89 e5             	mov    rbp,rsp
    4dbf:	48 83 e4 e0          	and    rsp,0xffffffffffffffe0
    4dc3:	48 89 4c 24 c8       	mov    QWORD PTR [rsp-0x38],rcx
    4dc8:	0f af 74 24 c8       	imul   esi,DWORD PTR [rsp-0x38]
    4dcd:	48 89 54 24 c0       	mov    QWORD PTR [rsp-0x40],rdx
    4dd2:	8b 4c 24 c0          	mov    ecx,DWORD PTR [rsp-0x40]
    4dd6:	0f af 7c 24 c4       	imul   edi,DWORD PTR [rsp-0x3c]
    4ddb:	c7 44 24 ec 00 00 00 	mov    DWORD PTR [rsp-0x14],0x0
    4de2:	00 
    4de3:	48 63 d6             	movsxd rdx,esi
    4de6:	0f af c8             	imul   ecx,eax
    4de9:	4c 69 c2 81 80 80 80 	imul   r8,rdx,0xffffffff80808081
    4df0:	4c 63 d7             	movsxd r10,edi
    4df3:	4d 69 da 81 80 80 80 	imul   r11,r10,0xffffffff80808081
    4dfa:	49 c1 e8 20          	shr    r8,0x20
    4dfe:	41 01 f0             	add    r8d,esi
    4e01:	c1 fe 1f             	sar    esi,0x1f
    4e04:	41 c1 f8 07          	sar    r8d,0x7
    4e08:	49 c1 eb 20          	shr    r11,0x20
    4e0c:	41 29 f0             	sub    r8d,esi
    4e0f:	48 63 f1             	movsxd rsi,ecx
    4e12:	41 01 fb             	add    r11d,edi
    4e15:	c1 ff 1f             	sar    edi,0x1f
    4e18:	4c 69 ce 81 80 80 80 	imul   r9,rsi,0xffffffff80808081
    4e1f:	41 c1 fb 07          	sar    r11d,0x7
    4e23:	44 89 44 24 e8       	mov    DWORD PTR [rsp-0x18],r8d
    4e28:	48 8b 54 24 e8       	mov    rdx,QWORD PTR [rsp-0x18]
    4e2d:	41 29 fb             	sub    r11d,edi
    4e30:	49 c1 e9 20          	shr    r9,0x20
    4e34:	41 01 c9             	add    r9d,ecx
    4e37:	c1 f9 1f             	sar    ecx,0x1f
    4e3a:	41 c1 f9 07          	sar    r9d,0x7
    4e3e:	41 29 c9             	sub    r9d,ecx
    4e41:	c4 c1 79 6e c9       	vmovd  xmm1,r9d
    4e46:	c4 c3 71 22 c3 01    	vpinsrd xmm0,xmm1,r11d,0x1
    4e4c:	c5 f9 d6 44 24 e0    	vmovq  QWORD PTR [rsp-0x20],xmm0
    4e52:	48 8b 44 24 e0       	mov    rax,QWORD PTR [rsp-0x20]
    4e57:	c9                   	leave  
    4e58:	c3                   	ret    
    4e59:	0f 1f 80 00 00 00 00 	nop    DWORD PTR [rax+0x0]

0000000000004e60 <is_shadowed_surface>:
    4e60:	f3 0f 1e fa          	endbr64 
    4e64:	4c 8d 54 24 08       	lea    r10,[rsp+0x8]
    4e69:	48 83 e4 e0          	and    rsp,0xffffffffffffffe0
    4e6d:	41 ff 72 f8          	push   QWORD PTR [r10-0x8]
    4e71:	55                   	push   rbp
    4e72:	48 89 e5             	mov    rbp,rsp
    4e75:	41 57                	push   r15
    4e77:	41 56                	push   r14
    4e79:	4c 8d 7d 90          	lea    r15,[rbp-0x70]
    4e7d:	41 55                	push   r13
    4e7f:	49 89 f5             	mov    r13,rsi
    4e82:	41 54                	push   r12
    4e84:	49 89 fc             	mov    r12,rdi
    4e87:	41 52                	push   r10
    4e89:	4d 8d b4 24 c8 00 00 	lea    r14,[r12+0xc8]
    4e90:	00 
    4e91:	53                   	push   rbx
    4e92:	31 db                	xor    ebx,ebx
    4e94:	48 81 ec 20 01 00 00 	sub    rsp,0x120
    4e9b:	c5 fa 7e 97 90 00 00 	vmovq  xmm2,QWORD PTR [rdi+0x90]
    4ea2:	00 
    4ea3:	c5 fa 7e 9f 98 00 00 	vmovq  xmm3,QWORD PTR [rdi+0x98]
    4eaa:	00 
    4eab:	c5 f9 d6 85 20 ff ff 	vmovq  QWORD PTR [rbp-0xe0],xmm0
    4eb2:	ff 
    4eb3:	c5 f9 d6 8d 28 ff ff 	vmovq  QWORD PTR [rbp-0xd8],xmm1
    4eba:	ff 
    4ebb:	e8 20 22 00 00       	call   70e0 <subtract_vector3>
    4ec0:	c5 f9 d6 85 30 ff ff 	vmovq  QWORD PTR [rbp-0xd0],xmm0
    4ec7:	ff 
    4ec8:	c5 f9 d6 8d 38 ff ff 	vmovq  QWORD PTR [rbp-0xc8],xmm1
    4ecf:	ff 
    4ed0:	e8 db 20 00 00       	call   6fb0 <normalize_vector3>
    4ed5:	48 8d bd 70 ff ff ff 	lea    rdi,[rbp-0x90]
    4edc:	c5 f9 6f d0          	vmovdqa xmm2,xmm0
    4ee0:	c5 f9 6f d9          	vmovdqa xmm3,xmm1
    4ee4:	c5 f9 d6 85 40 ff ff 	vmovq  QWORD PTR [rbp-0xc0],xmm0
    4eeb:	ff 
    4eec:	c4 c1 7a 7e 84 24 90 	vmovq  xmm0,QWORD PTR [r12+0x90]
    4ef3:	00 00 00 
    4ef6:	c5 f9 d6 8d 48 ff ff 	vmovq  QWORD PTR [rbp-0xb8],xmm1
    4efd:	ff 
    4efe:	c4 c1 7a 7e 8c 24 98 	vmovq  xmm1,QWORD PTR [r12+0x98]
    4f05:	00 00 00 
    4f08:	e8 73 f8 ff ff       	call   4780 <get_ray>
    4f0d:	48 8d bd d0 fe ff ff 	lea    rdi,[rbp-0x130]
    4f14:	e8 07 ea ff ff       	call   3920 <get_hit_record>
    4f19:	c5 f9 6f ad d0 fe ff 	vmovdqa xmm5,XMMWORD PTR [rbp-0x130]
    4f20:	ff 
    4f21:	c5 f9 6f b5 e0 fe ff 	vmovdqa xmm6,XMMWORD PTR [rbp-0x120]
    4f28:	ff 
    4f29:	c5 f9 6f bd f0 fe ff 	vmovdqa xmm7,XMMWORD PTR [rbp-0x110]
    4f30:	ff 
    4f31:	c5 f9 6f 85 00 ff ff 	vmovdqa xmm0,XMMWORD PTR [rbp-0x100]
    4f38:	ff 
    4f39:	49 83 bc 24 d0 00 00 	cmp    QWORD PTR [r12+0xd0],0x0
    4f40:	00 00 
    4f42:	c5 f9 7f 6d 90       	vmovdqa XMMWORD PTR [rbp-0x70],xmm5
    4f47:	c5 f9 7f 75 a0       	vmovdqa XMMWORD PTR [rbp-0x60],xmm6
    4f4c:	c5 f9 7f 7d b0       	vmovdqa XMMWORD PTR [rbp-0x50],xmm7
    4f51:	c5 f9 7f 45 c0       	vmovdqa XMMWORD PTR [rbp-0x40],xmm0
    4f56:	75 16                	jne    4f6e <is_shadowed_surface+0x10e>
    4f58:	e9 03 01 00 00       	jmp    5060 <is_shadowed_surface+0x200>
    4f5d:	0f 1f 00             	nop    DWORD PTR [rax]
    4f60:	49 39 9c 24 d0 00 00 	cmp    QWORD PTR [r12+0xd0],rbx
    4f67:	00 
    4f68:	0f 86 f2 00 00 00    	jbe    5060 <is_shadowed_surface+0x200>
    4f6e:	48 89 de             	mov    rsi,rbx
    4f71:	4c 89 f7             	mov    rdi,r14
    4f74:	48 83 c3 01          	add    rbx,0x1
    4f78:	e8 03 1f 00 00       	call   6e80 <get_element_or_null_in_list>
    4f7d:	48 8b 00             	mov    rax,QWORD PTR [rax]
    4f80:	4c 39 e8             	cmp    rax,r13
    4f83:	74 db                	je     4f60 <is_shadowed_surface+0x100>
    4f85:	ff 75 88             	push   QWORD PTR [rbp-0x78]
    4f88:	4c 89 fe             	mov    rsi,r15
    4f8b:	48 89 c7             	mov    rdi,rax
    4f8e:	ff 75 80             	push   QWORD PTR [rbp-0x80]
    4f91:	ff b5 78 ff ff ff    	push   QWORD PTR [rbp-0x88]
    4f97:	ff b5 70 ff ff ff    	push   QWORD PTR [rbp-0x90]
    4f9d:	ff 50 50             	call   QWORD PTR [rax+0x50]
    4fa0:	48 83 c4 20          	add    rsp,0x20
    4fa4:	84 c0                	test   al,al
    4fa6:	74 b8                	je     4f60 <is_shadowed_surface+0x100>
    4fa8:	c5 fa 7e 8d 28 ff ff 	vmovq  xmm1,QWORD PTR [rbp-0xd8]
    4faf:	ff 
    4fb0:	c5 fa 7e 85 20 ff ff 	vmovq  xmm0,QWORD PTR [rbp-0xe0]
    4fb7:	ff 
    4fb8:	88 85 cb fe ff ff    	mov    BYTE PTR [rbp-0x135],al
    4fbe:	c4 c1 7a 7e 94 24 90 	vmovq  xmm2,QWORD PTR [r12+0x90]
    4fc5:	00 00 00 
    4fc8:	c4 c1 7a 7e 9c 24 98 	vmovq  xmm3,QWORD PTR [r12+0x98]
    4fcf:	00 00 00 
    4fd2:	e8 09 21 00 00       	call   70e0 <subtract_vector3>
    4fd7:	c5 f9 d6 8d 58 ff ff 	vmovq  QWORD PTR [rbp-0xa8],xmm1
    4fde:	ff 
    4fdf:	c5 f9 d6 85 50 ff ff 	vmovq  QWORD PTR [rbp-0xb0],xmm0
    4fe6:	ff 
    4fe7:	e8 74 1f 00 00       	call   6f60 <get_length_in_vector3>
    4fec:	c5 fa 7e 4d 98       	vmovq  xmm1,QWORD PTR [rbp-0x68]
    4ff1:	c4 c1 7a 7e 94 24 90 	vmovq  xmm2,QWORD PTR [r12+0x90]
    4ff8:	00 00 00 
    4ffb:	c4 c1 7a 7e 9c 24 98 	vmovq  xmm3,QWORD PTR [r12+0x98]
    5002:	00 00 00 
    5005:	c5 fa 11 85 cc fe ff 	vmovss DWORD PTR [rbp-0x134],xmm0
    500c:	ff 
    500d:	c5 fa 7e 45 90       	vmovq  xmm0,QWORD PTR [rbp-0x70]
    5012:	e8 c9 20 00 00       	call   70e0 <subtract_vector3>
    5017:	c5 f9 d6 8d 68 ff ff 	vmovq  QWORD PTR [rbp-0x98],xmm1
    501e:	ff 
    501f:	c5 f9 d6 85 60 ff ff 	vmovq  QWORD PTR [rbp-0xa0],xmm0
    5026:	ff 
    5027:	e8 34 1f 00 00       	call   6f60 <get_length_in_vector3>
    502c:	c5 fa 10 8d cc fe ff 	vmovss xmm1,DWORD PTR [rbp-0x134]
    5033:	ff 
    5034:	0f b6 85 cb fe ff ff 	movzx  eax,BYTE PTR [rbp-0x135]
    503b:	c5 f8 2f c8          	vcomiss xmm1,xmm0
    503f:	0f 86 1b ff ff ff    	jbe    4f60 <is_shadowed_surface+0x100>
    5045:	48 8d 65 d0          	lea    rsp,[rbp-0x30]
    5049:	5b                   	pop    rbx
    504a:	5e                   	pop    rsi
    504b:	41 5c                	pop    r12
    504d:	41 5d                	pop    r13
    504f:	41 5e                	pop    r14
    5051:	41 5f                	pop    r15
    5053:	5d                   	pop    rbp
    5054:	48 8d 66 f8          	lea    rsp,[rsi-0x8]
    5058:	c3                   	ret    
    5059:	0f 1f 80 00 00 00 00 	nop    DWORD PTR [rax+0x0]
    5060:	31 c0                	xor    eax,eax
    5062:	eb e1                	jmp    5045 <is_shadowed_surface+0x1e5>
    5064:	66 2e 0f 1f 84 00 00 	cs nop WORD PTR [rax+rax*1+0x0]
    506b:	00 00 00 
    506e:	66 90                	xchg   ax,ax

0000000000005070 <move_shape>:
    5070:	f3 0f 1e fa          	endbr64 
    5074:	83 ee 0c             	sub    esi,0xc
    5077:	83 fe 05             	cmp    esi,0x5
    507a:	0f 87 a7 00 00 00    	ja     5127 <move_shape+0xb7>
    5080:	48 8d 15 45 71 00 00 	lea    rdx,[rip+0x7145]        # c1cc <CSWTCH.3+0x10c>
    5087:	53                   	push   rbx
    5088:	48 89 fb             	mov    rbx,rdi
    508b:	48 63 04 b2          	movsxd rax,DWORD PTR [rdx+rsi*4]
    508f:	48 01 d0             	add    rax,rdx
    5092:	3e ff e0             	notrack jmp rax
    5095:	0f 1f 00             	nop    DWORD PTR [rax]
    5098:	c5 fa 7e 57 40       	vmovq  xmm2,QWORD PTR [rdi+0x40]
    509d:	c5 fa 7e 5f 48       	vmovq  xmm3,QWORD PTR [rdi+0x48]
    50a2:	c5 fa 7e 03          	vmovq  xmm0,QWORD PTR [rbx]
    50a6:	c5 fa 7e 4b 08       	vmovq  xmm1,QWORD PTR [rbx+0x8]
    50ab:	e8 f0 1f 00 00       	call   70a0 <add_vector3>
    50b0:	c5 f9 d6 03          	vmovq  QWORD PTR [rbx],xmm0
    50b4:	c5 f9 d6 4b 08       	vmovq  QWORD PTR [rbx+0x8],xmm1
    50b9:	5b                   	pop    rbx
    50ba:	c3                   	ret    
    50bb:	0f 1f 44 00 00       	nop    DWORD PTR [rax+rax*1+0x0]
    50c0:	c5 fa 7e 57 40       	vmovq  xmm2,QWORD PTR [rdi+0x40]
    50c5:	c5 fa 7e 5f 48       	vmovq  xmm3,QWORD PTR [rdi+0x48]
    50ca:	c5 fa 7e 03          	vmovq  xmm0,QWORD PTR [rbx]
    50ce:	c5 fa 7e 4b 08       	vmovq  xmm1,QWORD PTR [rbx+0x8]
    50d3:	e8 08 20 00 00       	call   70e0 <subtract_vector3>
    50d8:	c5 f9 d6 03          	vmovq  QWORD PTR [rbx],xmm0
    50dc:	c5 f9 d6 4b 08       	vmovq  QWORD PTR [rbx+0x8],xmm1
    50e1:	5b                   	pop    rbx
    50e2:	c3                   	ret    
    50e3:	0f 1f 44 00 00       	nop    DWORD PTR [rax+rax*1+0x0]
    50e8:	c5 fa 7e 57 30       	vmovq  xmm2,QWORD PTR [rdi+0x30]
    50ed:	c5 fa 7e 5f 38       	vmovq  xmm3,QWORD PTR [rdi+0x38]
    50f2:	eb ae                	jmp    50a2 <move_shape+0x32>
    50f4:	0f 1f 40 00          	nop    DWORD PTR [rax+0x0]
    50f8:	c5 fa 7e 57 30       	vmovq  xmm2,QWORD PTR [rdi+0x30]
    50fd:	c5 fa 7e 5f 38       	vmovq  xmm3,QWORD PTR [rdi+0x38]
    5102:	eb c6                	jmp    50ca <move_shape+0x5a>
    5104:	0f 1f 40 00          	nop    DWORD PTR [rax+0x0]
    5108:	c5 fa 7e 57 20       	vmovq  xmm2,QWORD PTR [rdi+0x20]
    510d:	c5 fa 7e 5f 28       	vmovq  xmm3,QWORD PTR [rdi+0x28]
    5112:	eb b6                	jmp    50ca <move_shape+0x5a>
    5114:	0f 1f 40 00          	nop    DWORD PTR [rax+0x0]
    5118:	c5 fa 7e 57 20       	vmovq  xmm2,QWORD PTR [rdi+0x20]
    511d:	c5 fa 7e 5f 28       	vmovq  xmm3,QWORD PTR [rdi+0x28]
    5122:	e9 7b ff ff ff       	jmp    50a2 <move_shape+0x32>
    5127:	c3                   	ret    
    5128:	0f 1f 84 00 00 00 00 	nop    DWORD PTR [rax+rax*1+0x0]
    512f:	00 

0000000000005130 <rotate_shape>:
    5130:	f3 0f 1e fa          	endbr64 
    5134:	83 fe 07             	cmp    esi,0x7
    5137:	0f 87 a7 00 00 00    	ja     51e4 <rotate_shape+0xb4>
    513d:	48 8d 15 a0 70 00 00 	lea    rdx,[rip+0x70a0]        # c1e4 <CSWTCH.3+0x124>
    5144:	89 f6                	mov    esi,esi
    5146:	53                   	push   rbx
    5147:	48 89 fb             	mov    rbx,rdi
    514a:	48 63 04 b2          	movsxd rax,DWORD PTR [rdx+rsi*4]
    514e:	48 01 d0             	add    rax,rdx
    5151:	3e ff e0             	notrack jmp rax
    5154:	0f 1f 40 00          	nop    DWORD PTR [rax+0x0]
    5158:	c5 fa 7e 57 40       	vmovq  xmm2,QWORD PTR [rdi+0x40]
    515d:	c5 fa 7e 5f 48       	vmovq  xmm3,QWORD PTR [rdi+0x48]
    5162:	c5 fa 7e 03          	vmovq  xmm0,QWORD PTR [rbx]
    5166:	c5 fa 7e 4b 08       	vmovq  xmm1,QWORD PTR [rbx+0x8]
    516b:	e8 70 1f 00 00       	call   70e0 <subtract_vector3>
    5170:	c5 f9 d6 03          	vmovq  QWORD PTR [rbx],xmm0
    5174:	c5 f9 d6 4b 08       	vmovq  QWORD PTR [rbx+0x8],xmm1
    5179:	5b                   	pop    rbx
    517a:	c3                   	ret    
    517b:	0f 1f 44 00 00       	nop    DWORD PTR [rax+rax*1+0x0]
    5180:	c5 fa 7e 57 30       	vmovq  xmm2,QWORD PTR [rdi+0x30]
    5185:	c5 fa 7e 5f 38       	vmovq  xmm3,QWORD PTR [rdi+0x38]
    518a:	c5 fa 7e 03          	vmovq  xmm0,QWORD PTR [rbx]
    518e:	c5 fa 7e 4b 08       	vmovq  xmm1,QWORD PTR [rbx+0x8]
    5193:	e8 08 1f 00 00       	call   70a0 <add_vector3>
    5198:	c5 f9 d6 03          	vmovq  QWORD PTR [rbx],xmm0
    519c:	c5 f9 d6 4b 08       	vmovq  QWORD PTR [rbx+0x8],xmm1
    51a1:	5b                   	pop    rbx
    51a2:	c3                   	ret    
    51a3:	0f 1f 44 00 00       	nop    DWORD PTR [rax+rax*1+0x0]
    51a8:	c5 fa 7e 57 30       	vmovq  xmm2,QWORD PTR [rdi+0x30]
    51ad:	c5 fa 7e 5f 38       	vmovq  xmm3,QWORD PTR [rdi+0x38]
    51b2:	eb ae                	jmp    5162 <rotate_shape+0x32>
    51b4:	0f 1f 40 00          	nop    DWORD PTR [rax+0x0]
    51b8:	c5 fa 7e 57 20       	vmovq  xmm2,QWORD PTR [rdi+0x20]
    51bd:	c5 fa 7e 5f 28       	vmovq  xmm3,QWORD PTR [rdi+0x28]
    51c2:	eb 9e                	jmp    5162 <rotate_shape+0x32>
    51c4:	0f 1f 40 00          	nop    DWORD PTR [rax+0x0]
    51c8:	c5 fa 7e 57 20       	vmovq  xmm2,QWORD PTR [rdi+0x20]
    51cd:	c5 fa 7e 5f 28       	vmovq  xmm3,QWORD PTR [rdi+0x28]
    51d2:	eb b6                	jmp    518a <rotate_shape+0x5a>
    51d4:	0f 1f 40 00          	nop    DWORD PTR [rax+0x0]
    51d8:	c5 fa 7e 57 40       	vmovq  xmm2,QWORD PTR [rdi+0x40]
    51dd:	c5 fa 7e 5f 48       	vmovq  xmm3,QWORD PTR [rdi+0x48]
    51e2:	eb a6                	jmp    518a <rotate_shape+0x5a>
    51e4:	c3                   	ret    
    51e5:	66 66 2e 0f 1f 84 00 	data16 cs nop WORD PTR [rax+rax*1+0x0]
    51ec:	00 00 00 00 

00000000000051f0 <get_local_basis>:
    51f0:	f3 0f 1e fa          	endbr64 
    51f4:	41 54                	push   r12
    51f6:	c5 e8 57 d2          	vxorps xmm2,xmm2,xmm2
    51fa:	49 89 fc             	mov    r12,rdi
    51fd:	48 83 ec 20          	sub    rsp,0x20
    5201:	c5 f9 d6 4c 24 08    	vmovq  QWORD PTR [rsp+0x8],xmm1
    5207:	c5 fa 10 0d b5 6f 00 	vmovss xmm1,DWORD PTR [rip+0x6fb5]        # c1c4 <CSWTCH.3+0x104>
    520e:	00 
    520f:	c5 f9 d6 04 24       	vmovq  QWORD PTR [rsp],xmm0
    5214:	c5 f8 57 c0          	vxorps xmm0,xmm0,xmm0
    5218:	e8 a3 1c 00 00       	call   6ec0 <get_vector3>
    521d:	c5 fa 7e 14 24       	vmovq  xmm2,QWORD PTR [rsp]
    5222:	c5 fa 7e 5c 24 08    	vmovq  xmm3,QWORD PTR [rsp+0x8]
    5228:	c5 f9 d6 44 24 10    	vmovq  QWORD PTR [rsp+0x10],xmm0
    522e:	c5 f9 d6 4c 24 18    	vmovq  QWORD PTR [rsp+0x18],xmm1
    5234:	e8 a7 1c 00 00       	call   6ee0 <is_uneqaul_vector3>
    5239:	84 c0                	test   al,al
    523b:	74 6b                	je     52a8 <get_local_basis+0xb8>
    523d:	c5 fa 7e 44 24 10    	vmovq  xmm0,QWORD PTR [rsp+0x10]
    5243:	c5 fa 7e 4c 24 18    	vmovq  xmm1,QWORD PTR [rsp+0x18]
    5249:	c5 fa 7e 14 24       	vmovq  xmm2,QWORD PTR [rsp]
    524e:	c5 fa 7e 5c 24 08    	vmovq  xmm3,QWORD PTR [rsp+0x8]
    5254:	e8 07 20 00 00       	call   7260 <cross_product3x3>
    5259:	c4 c1 79 d6 04 24    	vmovq  QWORD PTR [r12],xmm0
    525f:	c5 f9 6f d0          	vmovdqa xmm2,xmm0
    5263:	c5 f9 6f d9          	vmovdqa xmm3,xmm1
    5267:	c5 fa 7e 04 24       	vmovq  xmm0,QWORD PTR [rsp]
    526c:	c4 c1 79 d6 4c 24 08 	vmovq  QWORD PTR [r12+0x8],xmm1
    5273:	c5 fa 7e 4c 24 08    	vmovq  xmm1,QWORD PTR [rsp+0x8]
    5279:	e8 e2 1f 00 00       	call   7260 <cross_product3x3>
    527e:	c5 f9 6f 24 24       	vmovdqa xmm4,XMMWORD PTR [rsp]
    5283:	4c 89 e0             	mov    rax,r12
    5286:	c4 c1 79 d6 44 24 10 	vmovq  QWORD PTR [r12+0x10],xmm0
    528d:	c4 c1 79 d6 4c 24 18 	vmovq  QWORD PTR [r12+0x18],xmm1
    5294:	c4 c1 79 7f 64 24 20 	vmovdqa XMMWORD PTR [r12+0x20],xmm4
    529b:	48 83 c4 20          	add    rsp,0x20
    529f:	41 5c                	pop    r12
    52a1:	c3                   	ret    
    52a2:	66 0f 1f 44 00 00    	nop    WORD PTR [rax+rax*1+0x0]
    52a8:	c5 f0 57 c9          	vxorps xmm1,xmm1,xmm1
    52ac:	c5 fa 10 15 6c 6e 00 	vmovss xmm2,DWORD PTR [rip+0x6e6c]        # c120 <CSWTCH.3+0x60>
    52b3:	00 
    52b4:	c5 f8 28 c1          	vmovaps xmm0,xmm1
    52b8:	e8 03 1c 00 00       	call   6ec0 <get_vector3>
    52bd:	c5 f9 d6 44 24 10    	vmovq  QWORD PTR [rsp+0x10],xmm0
    52c3:	c5 f9 d6 4c 24 18    	vmovq  QWORD PTR [rsp+0x18],xmm1
    52c9:	e9 6f ff ff ff       	jmp    523d <get_local_basis+0x4d>
    52ce:	66 90                	xchg   ax,ax

00000000000052d0 <destroy_shapes>:
    52d0:	f3 0f 1e fa          	endbr64 
    52d4:	55                   	push   rbp
    52d5:	48 89 fd             	mov    rbp,rdi
    52d8:	53                   	push   rbx
    52d9:	48 83 ec 08          	sub    rsp,0x8
    52dd:	48 83 7f 08 00       	cmp    QWORD PTR [rdi+0x8],0x0
    52e2:	74 28                	je     530c <destroy_shapes+0x3c>
    52e4:	31 db                	xor    ebx,ebx
    52e6:	66 2e 0f 1f 84 00 00 	cs nop WORD PTR [rax+rax*1+0x0]
    52ed:	00 00 00 
    52f0:	48 89 de             	mov    rsi,rbx
    52f3:	48 89 ef             	mov    rdi,rbp
    52f6:	48 83 c3 01          	add    rbx,0x1
    52fa:	ff 55 48             	call   QWORD PTR [rbp+0x48]
    52fd:	48 8b 00             	mov    rax,QWORD PTR [rax]
    5300:	48 89 c7             	mov    rdi,rax
    5303:	ff 50 58             	call   QWORD PTR [rax+0x58]
    5306:	48 39 5d 08          	cmp    QWORD PTR [rbp+0x8],rbx
    530a:	77 e4                	ja     52f0 <destroy_shapes+0x20>
    530c:	48 8b 7d 00          	mov    rdi,QWORD PTR [rbp+0x0]
    5310:	e8 ab d2 ff ff       	call   25c0 <free@plt>
    5315:	48 c7 45 00 00 00 00 	mov    QWORD PTR [rbp+0x0],0x0
    531c:	00 
    531d:	48 83 c4 08          	add    rsp,0x8
    5321:	5b                   	pop    rbx
    5322:	5d                   	pop    rbp
    5323:	c3                   	ret    
    5324:	66 2e 0f 1f 84 00 00 	cs nop WORD PTR [rax+rax*1+0x0]
    532b:	00 00 00 
    532e:	66 90                	xchg   ax,ax

0000000000005330 <delete_sphere>:
    5330:	f3 0f 1e fa          	endbr64 
    5334:	e9 87 d2 ff ff       	jmp    25c0 <free@plt>
    5339:	0f 1f 80 00 00 00 00 	nop    DWORD PTR [rax+0x0]

0000000000005340 <is_hit_sphere>:
    5340:	f3 0f 1e fa          	endbr64 
    5344:	55                   	push   rbp
    5345:	48 89 f5             	mov    rbp,rsi
    5348:	53                   	push   rbx
    5349:	48 89 fb             	mov    rbx,rdi
    534c:	48 83 ec 58          	sub    rsp,0x58
    5350:	c5 fa 7e 17          	vmovq  xmm2,QWORD PTR [rdi]
    5354:	c5 fa 7e 5f 08       	vmovq  xmm3,QWORD PTR [rdi+0x8]
    5359:	c5 fa 7e 44 24 70    	vmovq  xmm0,QWORD PTR [rsp+0x70]
    535f:	c5 fa 7e 4c 24 78    	vmovq  xmm1,QWORD PTR [rsp+0x78]
    5365:	e8 76 1d 00 00       	call   70e0 <subtract_vector3>
    536a:	c5 fa 7e 94 24 80 00 	vmovq  xmm2,QWORD PTR [rsp+0x80]
    5371:	00 00 
    5373:	c5 fa 7e 9c 24 88 00 	vmovq  xmm3,QWORD PTR [rsp+0x88]
    537a:	00 00 
    537c:	c5 f9 d6 44 24 10    	vmovq  QWORD PTR [rsp+0x10],xmm0
    5382:	c5 f9 d6 4c 24 18    	vmovq  QWORD PTR [rsp+0x18],xmm1
    5388:	c5 f9 6f c2          	vmovdqa xmm0,xmm2
    538c:	c5 f9 6f cb          	vmovdqa xmm1,xmm3
    5390:	e8 0b 1e 00 00       	call   71a0 <dot_product3x3>
    5395:	c5 fa 7e 4c 24 18    	vmovq  xmm1,QWORD PTR [rsp+0x18]
    539b:	c5 fa 7e 94 24 80 00 	vmovq  xmm2,QWORD PTR [rsp+0x80]
    53a2:	00 00 
    53a4:	c5 fa 7e 9c 24 88 00 	vmovq  xmm3,QWORD PTR [rsp+0x88]
    53ab:	00 00 
    53ad:	c5 fa 11 44 24 04    	vmovss DWORD PTR [rsp+0x4],xmm0
    53b3:	c5 fa 7e 44 24 10    	vmovq  xmm0,QWORD PTR [rsp+0x10]
    53b9:	e8 e2 1d 00 00       	call   71a0 <dot_product3x3>
    53be:	c5 fa 7e 54 24 10    	vmovq  xmm2,QWORD PTR [rsp+0x10]
    53c4:	c5 fa 7e 5c 24 18    	vmovq  xmm3,QWORD PTR [rsp+0x18]
    53ca:	c5 fa 58 e0          	vaddss xmm4,xmm0,xmm0
    53ce:	c5 f9 6f cb          	vmovdqa xmm1,xmm3
    53d2:	c5 f9 6f c2          	vmovdqa xmm0,xmm2
    53d6:	c5 fa 11 24 24       	vmovss DWORD PTR [rsp],xmm4
    53db:	e8 c0 1d 00 00       	call   71a0 <dot_product3x3>
    53e0:	c5 fa 10 6c 24 04    	vmovss xmm5,DWORD PTR [rsp+0x4]
    53e6:	c5 7a 10 2c 24       	vmovss xmm13,DWORD PTR [rsp]
    53eb:	c4 41 20 57 db       	vxorps xmm11,xmm11,xmm11
    53f0:	c5 d2 59 1d 2c 6d 00 	vmulss xmm3,xmm5,DWORD PTR [rip+0x6d2c]        # c124 <CSWTCH.3+0x64>
    53f7:	00 
    53f8:	c5 f8 28 c8          	vmovaps xmm1,xmm0
    53fc:	c5 fa 10 05 18 6d 00 	vmovss xmm0,DWORD PTR [rip+0x6d18]        # c11c <CSWTCH.3+0x5c>
    5403:	00 
    5404:	c5 fa 59 53 70       	vmulss xmm2,xmm0,DWORD PTR [rbx+0x70]
    5409:	c4 e2 71 9d d2       	vfnmadd132ss xmm2,xmm1,xmm2
    540e:	c5 62 59 d2          	vmulss xmm10,xmm3,xmm2
    5412:	c4 42 11 bb d5       	vfmsub231ss xmm10,xmm13,xmm13
    5417:	c4 41 78 2f da       	vcomiss xmm11,xmm10
    541c:	0f 83 d6 00 00 00    	jae    54f8 <is_hit_sphere+0x1b8>
    5422:	c4 41 78 2e da       	vucomiss xmm11,xmm10
    5427:	c5 90 57 35 01 6d 00 	vxorps xmm6,xmm13,XMMWORD PTR [rip+0x6d01]        # c130 <CSWTCH.3+0x70>
    542e:	00 
    542f:	0f 87 cc 00 00 00    	ja     5501 <is_hit_sphere+0x1c1>
    5435:	c4 41 2a 51 d2       	vsqrtss xmm10,xmm10,xmm10
    543a:	c5 52 58 e5          	vaddss xmm12,xmm5,xmm5
    543e:	c4 41 4a 5c f2       	vsubss xmm14,xmm6,xmm10
    5443:	c4 c1 0a 5e c4       	vdivss xmm0,xmm14,xmm12
    5448:	c5 78 2f d8          	vcomiss xmm11,xmm0
    544c:	73 07                	jae    5455 <is_hit_sphere+0x115>
    544e:	c5 f8 2f 45 30       	vcomiss xmm0,DWORD PTR [rbp+0x30]
    5453:	72 1f                	jb     5474 <is_hit_sphere+0x134>
    5455:	c4 41 2a 5c fd       	vsubss xmm15,xmm10,xmm13
    545a:	c4 c1 02 5e c4       	vdivss xmm0,xmm15,xmm12
    545f:	c5 78 2f d8          	vcomiss xmm11,xmm0
    5463:	0f 83 8f 00 00 00    	jae    54f8 <is_hit_sphere+0x1b8>
    5469:	c5 f8 2f 45 30       	vcomiss xmm0,DWORD PTR [rbp+0x30]
    546e:	0f 83 84 00 00 00    	jae    54f8 <is_hit_sphere+0x1b8>
    5474:	c5 f9 6f a4 24 80 00 	vmovdqa xmm4,XMMWORD PTR [rsp+0x80]
    547b:	00 00 
    547d:	48 83 ec 20          	sub    rsp,0x20
    5481:	c5 fa 11 45 30       	vmovss DWORD PTR [rbp+0x30],xmm0
    5486:	c5 f9 6f 8c 24 90 00 	vmovdqa xmm1,XMMWORD PTR [rsp+0x90]
    548d:	00 00 
    548f:	c5 fa 7f 64 24 10    	vmovdqu XMMWORD PTR [rsp+0x10],xmm4
    5495:	c5 fa 7f 0c 24       	vmovdqu XMMWORD PTR [rsp],xmm1
    549a:	e8 21 f3 ff ff       	call   47c0 <get_point_in_ray>
    549f:	c5 fa 10 53 70       	vmovss xmm2,DWORD PTR [rbx+0x70]
    54a4:	c5 fa 7e 5b 08       	vmovq  xmm3,QWORD PTR [rbx+0x8]
    54a9:	c5 f9 d6 45 00       	vmovq  QWORD PTR [rbp+0x0],xmm0
    54ae:	c5 fa 11 54 24 20    	vmovss DWORD PTR [rsp+0x20],xmm2
    54b4:	c5 fa 7e 13          	vmovq  xmm2,QWORD PTR [rbx]
    54b8:	48 83 c4 20          	add    rsp,0x20
    54bc:	c5 f9 d6 4d 08       	vmovq  QWORD PTR [rbp+0x8],xmm1
    54c1:	e8 1a 1c 00 00       	call   70e0 <subtract_vector3>
    54c6:	c5 fa 10 14 24       	vmovss xmm2,DWORD PTR [rsp]
    54cb:	e8 90 1c 00 00       	call   7160 <divide_vector3>
    54d0:	b8 01 00 00 00       	mov    eax,0x1
    54d5:	c5 f9 d6 45 10       	vmovq  QWORD PTR [rbp+0x10],xmm0
    54da:	c5 f9 6f 43 10       	vmovdqa xmm0,XMMWORD PTR [rbx+0x10]
    54df:	c5 f9 d6 4d 18       	vmovq  QWORD PTR [rbp+0x18],xmm1
    54e4:	48 89 5d 38          	mov    QWORD PTR [rbp+0x38],rbx
    54e8:	c5 f9 7f 45 20       	vmovdqa XMMWORD PTR [rbp+0x20],xmm0
    54ed:	48 83 c4 58          	add    rsp,0x58
    54f1:	5b                   	pop    rbx
    54f2:	5d                   	pop    rbp
    54f3:	c3                   	ret    
    54f4:	0f 1f 40 00          	nop    DWORD PTR [rax+0x0]
    54f8:	48 83 c4 58          	add    rsp,0x58
    54fc:	31 c0                	xor    eax,eax
    54fe:	5b                   	pop    rbx
    54ff:	5d                   	pop    rbp
    5500:	c3                   	ret    
    5501:	c5 78 29 d0          	vmovaps xmm0,xmm10
    5505:	c5 7a 11 6c 24 08    	vmovss DWORD PTR [rsp+0x8],xmm13
    550b:	c5 7a 11 14 24       	vmovss DWORD PTR [rsp],xmm10
    5510:	c5 fa 11 74 24 0c    	vmovss DWORD PTR [rsp+0xc],xmm6
    5516:	c5 fa 11 6c 24 04    	vmovss DWORD PTR [rsp+0x4],xmm5
    551c:	e8 2f d3 ff ff       	call   2850 <sqrtf@plt>
    5521:	c5 fa 10 7c 24 04    	vmovss xmm7,DWORD PTR [rsp+0x4]
    5527:	c5 7a 10 44 24 0c    	vmovss xmm8,DWORD PTR [rsp+0xc]
    552d:	c4 41 20 57 db       	vxorps xmm11,xmm11,xmm11
    5532:	c5 7a 10 14 24       	vmovss xmm10,DWORD PTR [rsp]
    5537:	c5 7a 10 6c 24 08    	vmovss xmm13,DWORD PTR [rsp+0x8]
    553d:	c5 42 58 e7          	vaddss xmm12,xmm7,xmm7
    5541:	c5 3a 5c c8          	vsubss xmm9,xmm8,xmm0
    5545:	c4 c1 32 5e c4       	vdivss xmm0,xmm9,xmm12
    554a:	c5 78 2f d8          	vcomiss xmm11,xmm0
    554e:	73 12                	jae    5562 <is_hit_sphere+0x222>
    5550:	c5 f8 2f 45 30       	vcomiss xmm0,DWORD PTR [rbp+0x30]
    5555:	0f 82 19 ff ff ff    	jb     5474 <is_hit_sphere+0x134>
    555b:	c4 41 78 2e da       	vucomiss xmm11,xmm10
    5560:	76 2d                	jbe    558f <is_hit_sphere+0x24f>
    5562:	c5 78 29 d0          	vmovaps xmm0,xmm10
    5566:	c5 7a 11 64 24 04    	vmovss DWORD PTR [rsp+0x4],xmm12
    556c:	c5 7a 11 2c 24       	vmovss DWORD PTR [rsp],xmm13
    5571:	e8 da d2 ff ff       	call   2850 <sqrtf@plt>
    5576:	c5 7a 10 64 24 04    	vmovss xmm12,DWORD PTR [rsp+0x4]
    557c:	c5 7a 10 2c 24       	vmovss xmm13,DWORD PTR [rsp]
    5581:	c4 41 20 57 db       	vxorps xmm11,xmm11,xmm11
    5586:	c5 78 28 d0          	vmovaps xmm10,xmm0
    558a:	e9 c6 fe ff ff       	jmp    5455 <is_hit_sphere+0x115>
    558f:	c4 41 2a 51 d2       	vsqrtss xmm10,xmm10,xmm10
    5594:	e9 bc fe ff ff       	jmp    5455 <is_hit_sphere+0x115>
    5599:	0f 1f 80 00 00 00 00 	nop    DWORD PTR [rax+0x0]

00000000000055a0 <copy_construction_to_sphere>:
    55a0:	f3 0f 1e fa          	endbr64 
    55a4:	55                   	push   rbp
    55a5:	bf 80 00 00 00       	mov    edi,0x80
    55aa:	48 89 e5             	mov    rbp,rsp
    55ad:	48 83 e4 e0          	and    rsp,0xffffffffffffffe0
    55b1:	e8 8a cf ff ff       	call   2540 <malloc@plt>
    55b6:	c5 f9 6f 55 10       	vmovdqa xmm2,XMMWORD PTR [rbp+0x10]
    55bb:	c5 f9 6f 5d 20       	vmovdqa xmm3,XMMWORD PTR [rbp+0x20]
    55c0:	48 8d 0d 79 fd ff ff 	lea    rcx,[rip+0xfffffffffffffd79]        # 5340 <is_hit_sphere>
    55c7:	c4 e1 f9 6e c1       	vmovq  xmm0,rcx
    55cc:	c5 f9 6f 65 30       	vmovdqa xmm4,XMMWORD PTR [rbp+0x30]
    55d1:	c5 f9 6f 6d 40       	vmovdqa xmm5,XMMWORD PTR [rbp+0x40]
    55d6:	48 8d 15 53 fd ff ff 	lea    rdx,[rip+0xfffffffffffffd53]        # 5330 <delete_sphere>
    55dd:	c5 f9 6f 75 50       	vmovdqa xmm6,XMMWORD PTR [rbp+0x50]
    55e2:	c4 63 f9 22 c2 01    	vpinsrq xmm8,xmm0,rdx,0x1
    55e8:	c5 f9 7f 10          	vmovdqa XMMWORD PTR [rax],xmm2
    55ec:	c5 fa 7e 3d b4 b9 00 	vmovq  xmm7,QWORD PTR [rip+0xb9b4]        # 10fa8 <_GLOBAL_OFFSET_TABLE_+0x238>
    55f3:	00 
    55f4:	c4 e3 c1 22 0d e2 b9 	vpinsrq xmm1,xmm7,QWORD PTR [rip+0xb9e2],0x1        # 10fe0 <_GLOBAL_OFFSET_TABLE_+0x270>
    55fb:	00 00 01 
    55fe:	c5 7a 10 95 80 00 00 	vmovss xmm10,DWORD PTR [rbp+0x80]
    5605:	00 
    5606:	c5 f9 7f 58 10       	vmovdqa XMMWORD PTR [rax+0x10],xmm3
    560b:	c5 f9 7f 60 20       	vmovdqa XMMWORD PTR [rax+0x20],xmm4
    5610:	c4 63 3d 38 c9 01    	vinserti128 ymm9,ymm8,xmm1,0x1
    5616:	c5 f9 7f 68 30       	vmovdqa XMMWORD PTR [rax+0x30],xmm5
    561b:	c5 f9 7f 70 40       	vmovdqa XMMWORD PTR [rax+0x40],xmm6
    5620:	c5 7e 7f 48 50       	vmovdqu YMMWORD PTR [rax+0x50],ymm9
    5625:	c5 7a 11 50 70       	vmovss DWORD PTR [rax+0x70],xmm10
    562a:	c5 f8 77             	vzeroupper 
    562d:	c9                   	leave  
    562e:	c3                   	ret    
    562f:	90                   	nop

0000000000005630 <set_hit_record_by_sphere>:
    5630:	f3 0f 1e fa          	endbr64 
    5634:	55                   	push   rbp
    5635:	48 89 f5             	mov    rbp,rsi
    5638:	53                   	push   rbx
    5639:	48 89 fb             	mov    rbx,rdi
    563c:	48 83 ec 28          	sub    rsp,0x28
    5640:	c5 fa 11 47 30       	vmovss DWORD PTR [rdi+0x30],xmm0
    5645:	ff 74 24 58          	push   QWORD PTR [rsp+0x58]
    5649:	ff 74 24 58          	push   QWORD PTR [rsp+0x58]
    564d:	ff 74 24 58          	push   QWORD PTR [rsp+0x58]
    5651:	ff 74 24 58          	push   QWORD PTR [rsp+0x58]
    5655:	e8 66 f1 ff ff       	call   47c0 <get_point_in_ray>
    565a:	c5 fa 10 65 70       	vmovss xmm4,DWORD PTR [rbp+0x70]
    565f:	c5 fa 7e 55 00       	vmovq  xmm2,QWORD PTR [rbp+0x0]
    5664:	c5 fa 7e 5d 08       	vmovq  xmm3,QWORD PTR [rbp+0x8]
    5669:	c5 f9 d6 03          	vmovq  QWORD PTR [rbx],xmm0
    566d:	c5 fa 11 64 24 2c    	vmovss DWORD PTR [rsp+0x2c],xmm4
    5673:	48 83 c4 20          	add    rsp,0x20
    5677:	c5 f9 d6 4b 08       	vmovq  QWORD PTR [rbx+0x8],xmm1
    567c:	e8 5f 1a 00 00       	call   70e0 <subtract_vector3>
    5681:	c5 fa 10 54 24 0c    	vmovss xmm2,DWORD PTR [rsp+0xc]
    5687:	e8 d4 1a 00 00       	call   7160 <divide_vector3>
    568c:	c5 f9 6f 6d 10       	vmovdqa xmm5,XMMWORD PTR [rbp+0x10]
    5691:	48 89 6b 38          	mov    QWORD PTR [rbx+0x38],rbp
    5695:	c5 f9 d6 43 10       	vmovq  QWORD PTR [rbx+0x10],xmm0
    569a:	c5 f9 d6 4b 18       	vmovq  QWORD PTR [rbx+0x18],xmm1
    569f:	c5 f9 7f 6b 20       	vmovdqa XMMWORD PTR [rbx+0x20],xmm5
    56a4:	48 83 c4 28          	add    rsp,0x28
    56a8:	5b                   	pop    rbx
    56a9:	5d                   	pop    rbp
    56aa:	c3                   	ret    
    56ab:	0f 1f 44 00 00       	nop    DWORD PTR [rax+rax*1+0x0]

00000000000056b0 <update_scale_diameter_sphere>:
    56b0:	f3 0f 1e fa          	endbr64 
    56b4:	53                   	push   rbx
    56b5:	48 89 fb             	mov    rbx,rdi
    56b8:	83 fe 08             	cmp    esi,0x8
    56bb:	74 2b                	je     56e8 <update_scale_diameter_sphere+0x38>
    56bd:	83 fe 09             	cmp    esi,0x9
    56c0:	74 06                	je     56c8 <update_scale_diameter_sphere+0x18>
    56c2:	5b                   	pop    rbx
    56c3:	c3                   	ret    
    56c4:	0f 1f 40 00          	nop    DWORD PTR [rax+0x0]
    56c8:	c5 fa 10 47 70       	vmovss xmm0,DWORD PTR [rdi+0x70]
    56cd:	c5 fa 10 0d 47 6a 00 	vmovss xmm1,DWORD PTR [rip+0x6a47]        # c11c <CSWTCH.3+0x5c>
    56d4:	00 
    56d5:	c5 fa 5c c1          	vsubss xmm0,xmm0,xmm1
    56d9:	e8 b2 ce ff ff       	call   2590 <fmaxf@plt>
    56de:	c5 fa 11 43 70       	vmovss DWORD PTR [rbx+0x70],xmm0
    56e3:	5b                   	pop    rbx
    56e4:	c3                   	ret    
    56e5:	0f 1f 00             	nop    DWORD PTR [rax]
    56e8:	c5 fa 10 0d 2c 6a 00 	vmovss xmm1,DWORD PTR [rip+0x6a2c]        # c11c <CSWTCH.3+0x5c>
    56ef:	00 
    56f0:	c5 f2 58 57 70       	vaddss xmm2,xmm1,DWORD PTR [rdi+0x70]
    56f5:	5b                   	pop    rbx
    56f6:	c5 fa 11 57 70       	vmovss DWORD PTR [rdi+0x70],xmm2
    56fb:	c3                   	ret    
    56fc:	0f 1f 40 00          	nop    DWORD PTR [rax+0x0]

0000000000005700 <update_scale_height_sphere>:
    5700:	f3 0f 1e fa          	endbr64 
    5704:	c3                   	ret    
    5705:	66 2e 0f 1f 84 00 00 	cs nop WORD PTR [rax+rax*1+0x0]
    570c:	00 00 00 
    570f:	90                   	nop

0000000000005710 <init_world>:
    5710:	f3 0f 1e fa          	endbr64 
    5714:	c6 47 50 00          	mov    BYTE PTR [rdi+0x50],0x0
    5718:	be 08 00 00 00       	mov    esi,0x8
    571d:	48 81 c7 c8 00 00 00 	add    rdi,0xc8
    5724:	c6 47 b8 00          	mov    BYTE PTR [rdi-0x48],0x0
    5728:	c6 47 f8 00          	mov    BYTE PTR [rdi-0x8],0x0
    572c:	48 c7 47 50 00 00 00 	mov    QWORD PTR [rdi+0x50],0x0
    5733:	00 
    5734:	e9 97 16 00 00       	jmp    6dd0 <init_array_list>
    5739:	0f 1f 80 00 00 00 00 	nop    DWORD PTR [rax+0x0]

0000000000005740 <destroy_world>:
    5740:	f3 0f 1e fa          	endbr64 
    5744:	48 81 c7 c8 00 00 00 	add    rdi,0xc8
    574b:	e9 80 fb ff ff       	jmp    52d0 <destroy_shapes>

0000000000005750 <try_add_ambient_light_to_world>:
    5750:	f3 0f 1e fa          	endbr64 
    5754:	55                   	push   rbp
    5755:	48 89 f5             	mov    rbp,rsi
    5758:	53                   	push   rbx
    5759:	48 89 fb             	mov    rbx,rdi
    575c:	48 83 ec 08          	sub    rsp,0x8
    5760:	e8 9b 0b 00 00       	call   6300 <get_count_to_words>
    5765:	48 83 f8 03          	cmp    rax,0x3
    5769:	74 0d                	je     5778 <try_add_ambient_light_to_world+0x28>
    576b:	48 83 c4 08          	add    rsp,0x8
    576f:	31 c0                	xor    eax,eax
    5771:	5b                   	pop    rbx
    5772:	5d                   	pop    rbp
    5773:	c3                   	ret    
    5774:	0f 1f 40 00          	nop    DWORD PTR [rax+0x0]
    5778:	48 8b 7b 10          	mov    rdi,QWORD PTR [rbx+0x10]
    577c:	be 2c 00 00 00       	mov    esi,0x2c
    5781:	e8 ba 0a 00 00       	call   6240 <get_count_words>
    5786:	48 83 f8 03          	cmp    rax,0x3
    578a:	75 df                	jne    576b <try_add_ambient_light_to_world+0x1b>
    578c:	80 bd 80 00 00 00 00 	cmp    BYTE PTR [rbp+0x80],0x0
    5793:	75 d6                	jne    576b <try_add_ambient_light_to_world+0x1b>
    5795:	48 8b 7b 08          	mov    rdi,QWORD PTR [rbx+0x8]
    5799:	48 8d 75 60          	lea    rsi,[rbp+0x60]
    579d:	e8 0e 12 00 00       	call   69b0 <try_atof>
    57a2:	84 c0                	test   al,al
    57a4:	74 c5                	je     576b <try_add_ambient_light_to_world+0x1b>
    57a6:	c5 fa 10 45 60       	vmovss xmm0,DWORD PTR [rbp+0x60]
    57ab:	e8 30 e8 ff ff       	call   3fe0 <is_invalid_ratio_in_range>
    57b0:	84 c0                	test   al,al
    57b2:	75 b7                	jne    576b <try_add_ambient_light_to_world+0x1b>
    57b4:	48 8b 7b 10          	mov    rdi,QWORD PTR [rbx+0x10]
    57b8:	48 8d 75 70          	lea    rsi,[rbp+0x70]
    57bc:	e8 0f e7 ff ff       	call   3ed0 <try_parse_color>
    57c1:	84 c0                	test   al,al
    57c3:	74 a6                	je     576b <try_add_ambient_light_to_world+0x1b>
    57c5:	c6 85 80 00 00 00 01 	mov    BYTE PTR [rbp+0x80],0x1
    57cc:	48 83 c4 08          	add    rsp,0x8
    57d0:	5b                   	pop    rbx
    57d1:	5d                   	pop    rbp
    57d2:	c3                   	ret    
    57d3:	66 66 2e 0f 1f 84 00 	data16 cs nop WORD PTR [rax+rax*1+0x0]
    57da:	00 00 00 00 
    57de:	66 90                	xchg   ax,ax

00000000000057e0 <try_add_camera_to_world>:
    57e0:	f3 0f 1e fa          	endbr64 
    57e4:	41 54                	push   r12
    57e6:	49 89 d4             	mov    r12,rdx
    57e9:	55                   	push   rbp
    57ea:	48 89 f5             	mov    rbp,rsi
    57ed:	53                   	push   rbx
    57ee:	48 89 fb             	mov    rbx,rdi
    57f1:	48 83 ec 10          	sub    rsp,0x10
    57f5:	e8 06 0b 00 00       	call   6300 <get_count_to_words>
    57fa:	48 83 f8 04          	cmp    rax,0x4
    57fe:	74 10                	je     5810 <try_add_camera_to_world+0x30>
    5800:	31 c0                	xor    eax,eax
    5802:	48 83 c4 10          	add    rsp,0x10
    5806:	5b                   	pop    rbx
    5807:	5d                   	pop    rbp
    5808:	41 5c                	pop    r12
    580a:	c3                   	ret    
    580b:	0f 1f 44 00 00       	nop    DWORD PTR [rax+rax*1+0x0]
    5810:	48 8b 7b 08          	mov    rdi,QWORD PTR [rbx+0x8]
    5814:	be 2c 00 00 00       	mov    esi,0x2c
    5819:	e8 22 0a 00 00       	call   6240 <get_count_words>
    581e:	48 83 f8 03          	cmp    rax,0x3
    5822:	75 dc                	jne    5800 <try_add_camera_to_world+0x20>
    5824:	48 8b 7b 10          	mov    rdi,QWORD PTR [rbx+0x10]
    5828:	be 2c 00 00 00       	mov    esi,0x2c
    582d:	e8 0e 0a 00 00       	call   6240 <get_count_words>
    5832:	48 83 f8 03          	cmp    rax,0x3
    5836:	75 c8                	jne    5800 <try_add_camera_to_world+0x20>
    5838:	80 7d 50 00          	cmp    BYTE PTR [rbp+0x50],0x0
    583c:	75 c2                	jne    5800 <try_add_camera_to_world+0x20>
    583e:	48 8b 7b 08          	mov    rdi,QWORD PTR [rbx+0x8]
    5842:	48 89 ee             	mov    rsi,rbp
    5845:	e8 16 e6 ff ff       	call   3e60 <try_parse_vector3>
    584a:	84 c0                	test   al,al
    584c:	74 b2                	je     5800 <try_add_camera_to_world+0x20>
    584e:	48 8b 7b 10          	mov    rdi,QWORD PTR [rbx+0x10]
    5852:	48 8d 75 30          	lea    rsi,[rbp+0x30]
    5856:	e8 05 e6 ff ff       	call   3e60 <try_parse_vector3>
    585b:	84 c0                	test   al,al
    585d:	74 a1                	je     5800 <try_add_camera_to_world+0x20>
    585f:	48 8b 7b 18          	mov    rdi,QWORD PTR [rbx+0x18]
    5863:	48 8d 75 40          	lea    rsi,[rbp+0x40]
    5867:	e8 44 11 00 00       	call   69b0 <try_atof>
    586c:	84 c0                	test   al,al
    586e:	88 44 24 0f          	mov    BYTE PTR [rsp+0xf],al
    5872:	74 8c                	je     5800 <try_add_camera_to_world+0x20>
    5874:	c5 fa 10 45 40       	vmovss xmm0,DWORD PTR [rbp+0x40]
    5879:	c5 f8 2f 05 83 69 00 	vcomiss xmm0,DWORD PTR [rip+0x6983]        # c204 <CSWTCH.3+0x144>
    5880:	00 
    5881:	0f 87 79 ff ff ff    	ja     5800 <try_add_camera_to_world+0x20>
    5887:	c5 f0 57 c9          	vxorps xmm1,xmm1,xmm1
    588b:	c5 f8 2f c8          	vcomiss xmm1,xmm0
    588f:	0f 87 6b ff ff ff    	ja     5800 <try_add_camera_to_world+0x20>
    5895:	4c 89 e6             	mov    rsi,r12
    5898:	48 89 ef             	mov    rdi,rbp
    589b:	e8 70 d5 ff ff       	call   2e10 <init_camera>
    58a0:	0f b6 44 24 0f       	movzx  eax,BYTE PTR [rsp+0xf]
    58a5:	e9 58 ff ff ff       	jmp    5802 <try_add_camera_to_world+0x22>
    58aa:	66 0f 1f 44 00 00    	nop    WORD PTR [rax+rax*1+0x0]

00000000000058b0 <try_add_light_to_world>:
    58b0:	f3 0f 1e fa          	endbr64 
    58b4:	55                   	push   rbp
    58b5:	48 89 f5             	mov    rbp,rsi
    58b8:	53                   	push   rbx
    58b9:	48 89 fb             	mov    rbx,rdi
    58bc:	48 83 ec 08          	sub    rsp,0x8
    58c0:	e8 3b 0a 00 00       	call   6300 <get_count_to_words>
    58c5:	48 83 f8 04          	cmp    rax,0x4
    58c9:	74 0d                	je     58d8 <try_add_light_to_world+0x28>
    58cb:	48 83 c4 08          	add    rsp,0x8
    58cf:	31 c0                	xor    eax,eax
    58d1:	5b                   	pop    rbx
    58d2:	5d                   	pop    rbp
    58d3:	c3                   	ret    
    58d4:	0f 1f 40 00          	nop    DWORD PTR [rax+0x0]
    58d8:	48 8b 7b 08          	mov    rdi,QWORD PTR [rbx+0x8]
    58dc:	be 2c 00 00 00       	mov    esi,0x2c
    58e1:	e8 5a 09 00 00       	call   6240 <get_count_words>
    58e6:	48 83 f8 03          	cmp    rax,0x3
    58ea:	75 df                	jne    58cb <try_add_light_to_world+0x1b>
    58ec:	48 8b 7b 18          	mov    rdi,QWORD PTR [rbx+0x18]
    58f0:	be 2c 00 00 00       	mov    esi,0x2c
    58f5:	e8 46 09 00 00       	call   6240 <get_count_words>
    58fa:	48 83 f8 03          	cmp    rax,0x3
    58fe:	75 cb                	jne    58cb <try_add_light_to_world+0x1b>
    5900:	80 bd c0 00 00 00 00 	cmp    BYTE PTR [rbp+0xc0],0x0
    5907:	75 c2                	jne    58cb <try_add_light_to_world+0x1b>
    5909:	48 8b 7b 08          	mov    rdi,QWORD PTR [rbx+0x8]
    590d:	48 8d b5 90 00 00 00 	lea    rsi,[rbp+0x90]
    5914:	e8 47 e5 ff ff       	call   3e60 <try_parse_vector3>
    5919:	84 c0                	test   al,al
    591b:	74 ae                	je     58cb <try_add_light_to_world+0x1b>
    591d:	48 8b 7b 10          	mov    rdi,QWORD PTR [rbx+0x10]
    5921:	48 8d b5 a0 00 00 00 	lea    rsi,[rbp+0xa0]
    5928:	e8 83 10 00 00       	call   69b0 <try_atof>
    592d:	84 c0                	test   al,al
    592f:	74 9a                	je     58cb <try_add_light_to_world+0x1b>
    5931:	c5 fa 10 85 a0 00 00 	vmovss xmm0,DWORD PTR [rbp+0xa0]
    5938:	00 
    5939:	e8 a2 e6 ff ff       	call   3fe0 <is_invalid_ratio_in_range>
    593e:	84 c0                	test   al,al
    5940:	75 89                	jne    58cb <try_add_light_to_world+0x1b>
    5942:	48 8b 7b 18          	mov    rdi,QWORD PTR [rbx+0x18]
    5946:	48 8d b5 b0 00 00 00 	lea    rsi,[rbp+0xb0]
    594d:	e8 7e e5 ff ff       	call   3ed0 <try_parse_color>
    5952:	84 c0                	test   al,al
    5954:	0f 84 71 ff ff ff    	je     58cb <try_add_light_to_world+0x1b>
    595a:	c6 85 c0 00 00 00 01 	mov    BYTE PTR [rbp+0xc0],0x1
    5961:	48 83 c4 08          	add    rsp,0x8
    5965:	5b                   	pop    rbx
    5966:	5d                   	pop    rbp
    5967:	c3                   	ret    
    5968:	0f 1f 84 00 00 00 00 	nop    DWORD PTR [rax+rax*1+0x0]
    596f:	00 

0000000000005970 <convert_colors>:
    5970:	f3 0f 1e fa          	endbr64 
    5974:	48 89 f8             	mov    rax,rdi
    5977:	c1 e7 10             	shl    edi,0x10
    597a:	48 c1 e8 20          	shr    rax,0x20
    597e:	c1 e0 08             	shl    eax,0x8
    5981:	01 c7                	add    edi,eax
    5983:	8d 04 37             	lea    eax,[rdi+rsi*1]
    5986:	c3                   	ret    
    5987:	66 0f 1f 84 00 00 00 	nop    WORD PTR [rax+rax*1+0x0]
    598e:	00 00 

0000000000005990 <add_color>:
    5990:	f3 0f 1e fa          	endbr64 
    5994:	55                   	push   rbp
    5995:	48 89 d0             	mov    rax,rdx
    5998:	48 89 e5             	mov    rbp,rsp
    599b:	53                   	push   rbx
    599c:	48 83 e4 e0          	and    rsp,0xffffffffffffffe0
    59a0:	48 83 ec 60          	sub    rsp,0x60
    59a4:	48 89 7c 24 40       	mov    QWORD PTR [rsp+0x40],rdi
    59a9:	01 c7                	add    edi,eax
    59ab:	48 89 74 24 48       	mov    QWORD PTR [rsp+0x48],rsi
    59b0:	be ff 00 00 00       	mov    esi,0xff
    59b5:	48 89 4c 24 38       	mov    QWORD PTR [rsp+0x38],rcx
    59ba:	48 89 44 24 30       	mov    QWORD PTR [rsp+0x30],rax
    59bf:	e8 6c 09 00 00       	call   6330 <get_min>
    59c4:	8b 7c 24 34          	mov    edi,DWORD PTR [rsp+0x34]
    59c8:	be ff 00 00 00       	mov    esi,0xff
    59cd:	03 7c 24 44          	add    edi,DWORD PTR [rsp+0x44]
    59d1:	89 c3                	mov    ebx,eax
    59d3:	e8 58 09 00 00       	call   6330 <get_min>
    59d8:	c5 f9 6e cb          	vmovd  xmm1,ebx
    59dc:	8b 7c 24 38          	mov    edi,DWORD PTR [rsp+0x38]
    59e0:	be ff 00 00 00       	mov    esi,0xff
    59e5:	c4 e3 71 22 c0 01    	vpinsrd xmm0,xmm1,eax,0x1
    59eb:	03 7c 24 48          	add    edi,DWORD PTR [rsp+0x48]
    59ef:	c4 e1 f9 7e c3       	vmovq  rbx,xmm0
    59f4:	e8 37 09 00 00       	call   6330 <get_min>
    59f9:	48 89 5c 24 50       	mov    QWORD PTR [rsp+0x50],rbx
    59fe:	48 8b 5d f8          	mov    rbx,QWORD PTR [rbp-0x8]
    5a02:	89 44 24 58          	mov    DWORD PTR [rsp+0x58],eax
    5a06:	48 8b 44 24 50       	mov    rax,QWORD PTR [rsp+0x50]
    5a0b:	48 8b 54 24 58       	mov    rdx,QWORD PTR [rsp+0x58]
    5a10:	c9                   	leave  
    5a11:	c3                   	ret    
    5a12:	66 66 2e 0f 1f 84 00 	data16 cs nop WORD PTR [rax+rax*1+0x0]
    5a19:	00 00 00 00 
    5a1d:	0f 1f 00             	nop    DWORD PTR [rax]

0000000000005a20 <get_radian>:
    5a20:	f3 0f 1e fa          	endbr64 
    5a24:	c5 fa 59 05 dc 67 00 	vmulss xmm0,xmm0,DWORD PTR [rip+0x67dc]        # c208 <CSWTCH.3+0x148>
    5a2b:	00 
    5a2c:	c5 fa 5e 05 d0 67 00 	vdivss xmm0,xmm0,DWORD PTR [rip+0x67d0]        # c204 <CSWTCH.3+0x144>
    5a33:	00 
    5a34:	c3                   	ret    
    5a35:	66 2e 0f 1f 84 00 00 	cs nop WORD PTR [rax+rax*1+0x0]
    5a3c:	00 00 00 
    5a3f:	90                   	nop

0000000000005a40 <load_diffuse_color>:
    5a40:	f3 0f 1e fa          	endbr64 
    5a44:	48 83 ec 58          	sub    rsp,0x58
    5a48:	c5 fa 7e 4c 24 68    	vmovq  xmm1,QWORD PTR [rsp+0x68]
    5a4e:	c5 fa 7e 44 24 60    	vmovq  xmm0,QWORD PTR [rsp+0x60]
    5a54:	c5 fa 7e 94 24 90 00 	vmovq  xmm2,QWORD PTR [rsp+0x90]
    5a5b:	00 00 
    5a5d:	c5 fa 7e 9c 24 98 00 	vmovq  xmm3,QWORD PTR [rsp+0x98]
    5a64:	00 00 
    5a66:	e8 75 16 00 00       	call   70e0 <subtract_vector3>
    5a6b:	e8 40 15 00 00       	call   6fb0 <normalize_vector3>
    5a70:	c5 fa 7e 94 24 a0 00 	vmovq  xmm2,QWORD PTR [rsp+0xa0]
    5a77:	00 00 
    5a79:	c5 fa 7e 9c 24 a8 00 	vmovq  xmm3,QWORD PTR [rsp+0xa8]
    5a80:	00 00 
    5a82:	e8 19 17 00 00       	call   71a0 <dot_product3x3>
    5a87:	c5 f1 57 c9          	vxorpd xmm1,xmm1,xmm1
    5a8b:	c5 fa 5a c0          	vcvtss2sd xmm0,xmm0,xmm0
    5a8f:	e8 ec cb ff ff       	call   2680 <fmax@plt>
    5a94:	48 8b bc 24 80 00 00 	mov    rdi,QWORD PTR [rsp+0x80]
    5a9b:	00 
    5a9c:	48 8b b4 24 88 00 00 	mov    rsi,QWORD PTR [rsp+0x88]
    5aa3:	00 
    5aa4:	c5 fb 5a c0          	vcvtsd2ss xmm0,xmm0,xmm0
    5aa8:	e8 23 18 00 00       	call   72d0 <multiply_ivector3>
    5aad:	48 8b 8c 24 b8 00 00 	mov    rcx,QWORD PTR [rsp+0xb8]
    5ab4:	00 
    5ab5:	48 89 c6             	mov    rsi,rax
    5ab8:	48 89 54 24 28       	mov    QWORD PTR [rsp+0x28],rdx
    5abd:	48 89 d0             	mov    rax,rdx
    5ac0:	48 8b 94 24 b0 00 00 	mov    rdx,QWORD PTR [rsp+0xb0]
    5ac7:	00 
    5ac8:	48 89 74 24 20       	mov    QWORD PTR [rsp+0x20],rsi
    5acd:	48 89 f7             	mov    rdi,rsi
    5ad0:	48 83 c4 58          	add    rsp,0x58
    5ad4:	48 89 c6             	mov    rsi,rax
    5ad7:	e9 d4 f2 ff ff       	jmp    4db0 <reflect_light>
    5adc:	0f 1f 40 00          	nop    DWORD PTR [rax+0x0]

0000000000005ae0 <load_ambient_color>:
    5ae0:	f3 0f 1e fa          	endbr64 
    5ae4:	48 83 ec 48          	sub    rsp,0x48
    5ae8:	48 8b 94 24 90 00 00 	mov    rdx,QWORD PTR [rsp+0x90]
    5aef:	00 
    5af0:	48 8b 8c 24 98 00 00 	mov    rcx,QWORD PTR [rsp+0x98]
    5af7:	00 
    5af8:	48 8b 7c 24 60       	mov    rdi,QWORD PTR [rsp+0x60]
    5afd:	48 8b 74 24 68       	mov    rsi,QWORD PTR [rsp+0x68]
    5b02:	e8 a9 f2 ff ff       	call   4db0 <reflect_light>
    5b07:	c5 fa 10 05 fd 66 00 	vmovss xmm0,DWORD PTR [rip+0x66fd]        # c20c <CSWTCH.3+0x14c>
    5b0e:	00 
    5b0f:	c5 fa 59 4c 24 50    	vmulss xmm1,xmm0,DWORD PTR [rsp+0x50]
    5b15:	48 89 54 24 08       	mov    QWORD PTR [rsp+0x8],rdx
    5b1a:	48 89 04 24          	mov    QWORD PTR [rsp],rax
    5b1e:	c5 fa 2c f9          	vcvttss2si edi,xmm1
    5b22:	89 fa                	mov    edx,edi
    5b24:	89 fe                	mov    esi,edi
    5b26:	e8 45 18 00 00       	call   7370 <get_ivector3>
    5b2b:	48 8b 4c 24 08       	mov    rcx,QWORD PTR [rsp+0x8]
    5b30:	48 89 c6             	mov    rsi,rax
    5b33:	48 89 54 24 18       	mov    QWORD PTR [rsp+0x18],rdx
    5b38:	48 89 d0             	mov    rax,rdx
    5b3b:	48 8b 14 24          	mov    rdx,QWORD PTR [rsp]
    5b3f:	48 89 74 24 10       	mov    QWORD PTR [rsp+0x10],rsi
    5b44:	48 89 f7             	mov    rdi,rsi
    5b47:	48 83 c4 48          	add    rsp,0x48
    5b4b:	48 89 c6             	mov    rsi,rax
    5b4e:	e9 5d f2 ff ff       	jmp    4db0 <reflect_light>
    5b53:	66 2e 0f 1f 84 00 00 	cs nop WORD PTR [rax+rax*1+0x0]
    5b5a:	00 00 00 
    5b5d:	0f 1f 00             	nop    DWORD PTR [rax]

0000000000005b60 <ft_strlen>:
    5b60:	f3 0f 1e fa          	endbr64 
    5b64:	31 c0                	xor    eax,eax
    5b66:	80 3f 00             	cmp    BYTE PTR [rdi],0x0
    5b69:	74 15                	je     5b80 <ft_strlen+0x20>
    5b6b:	0f 1f 44 00 00       	nop    DWORD PTR [rax+rax*1+0x0]
    5b70:	48 83 c0 01          	add    rax,0x1
    5b74:	80 3c 07 00          	cmp    BYTE PTR [rdi+rax*1],0x0
    5b78:	75 f6                	jne    5b70 <ft_strlen+0x10>
    5b7a:	c3                   	ret    
    5b7b:	0f 1f 44 00 00       	nop    DWORD PTR [rax+rax*1+0x0]
    5b80:	c3                   	ret    
    5b81:	66 2e 0f 1f 84 00 00 	cs nop WORD PTR [rax+rax*1+0x0]
    5b88:	00 00 00 
    5b8b:	0f 1f 44 00 00       	nop    DWORD PTR [rax+rax*1+0x0]

0000000000005b90 <ft_memset>:
    5b90:	f3 0f 1e fa          	endbr64 
    5b94:	48 85 d2             	test   rdx,rdx
    5b97:	74 17                	je     5bb0 <ft_memset+0x20>
    5b99:	48 83 ec 08          	sub    rsp,0x8
    5b9d:	40 0f be f6          	movsx  esi,sil
    5ba1:	e8 aa c8 ff ff       	call   2450 <memset@plt>
    5ba6:	48 83 c4 08          	add    rsp,0x8
    5baa:	c3                   	ret    
    5bab:	0f 1f 44 00 00       	nop    DWORD PTR [rax+rax*1+0x0]
    5bb0:	48 89 f8             	mov    rax,rdi
    5bb3:	c3                   	ret    
    5bb4:	66 2e 0f 1f 84 00 00 	cs nop WORD PTR [rax+rax*1+0x0]
    5bbb:	00 00 00 
    5bbe:	66 90                	xchg   ax,ax

0000000000005bc0 <ft_strcmp>:
    5bc0:	f3 0f 1e fa          	endbr64 
    5bc4:	0f b6 17             	movzx  edx,BYTE PTR [rdi]
    5bc7:	0f be 0e             	movsx  ecx,BYTE PTR [rsi]
    5bca:	b8 01 00 00 00       	mov    eax,0x1
    5bcf:	38 d1                	cmp    cl,dl
    5bd1:	74 16                	je     5be9 <ft_strcmp+0x29>
    5bd3:	eb 23                	jmp    5bf8 <ft_strcmp+0x38>
    5bd5:	0f 1f 00             	nop    DWORD PTR [rax]
    5bd8:	0f b6 14 07          	movzx  edx,BYTE PTR [rdi+rax*1]
    5bdc:	48 83 c0 01          	add    rax,0x1
    5be0:	0f be 4c 06 ff       	movsx  ecx,BYTE PTR [rsi+rax*1-0x1]
    5be5:	38 ca                	cmp    dl,cl
    5be7:	75 0f                	jne    5bf8 <ft_strcmp+0x38>
    5be9:	84 d2                	test   dl,dl
    5beb:	75 eb                	jne    5bd8 <ft_strcmp+0x18>
    5bed:	31 c0                	xor    eax,eax
    5bef:	29 c8                	sub    eax,ecx
    5bf1:	c3                   	ret    
    5bf2:	66 0f 1f 44 00 00    	nop    WORD PTR [rax+rax*1+0x0]
    5bf8:	0f be c2             	movsx  eax,dl
    5bfb:	29 c8                	sub    eax,ecx
    5bfd:	c3                   	ret    
    5bfe:	66 90                	xchg   ax,ax

0000000000005c00 <ft_strncmp>:
    5c00:	f3 0f 1e fa          	endbr64 
    5c04:	49 89 f9             	mov    r9,rdi
    5c07:	31 c0                	xor    eax,eax
    5c09:	48 89 d7             	mov    rdi,rdx
    5c0c:	48 85 d2             	test   rdx,rdx
    5c0f:	0f 84 ed 01 00 00    	je     5e02 <ft_strncmp+0x202>
    5c15:	41 0f b6 01          	movzx  eax,BYTE PTR [r9]
    5c19:	0f b6 16             	movzx  edx,BYTE PTR [rsi]
    5c1c:	b9 01 00 00 00       	mov    ecx,0x1
    5c21:	38 c2                	cmp    dl,al
    5c23:	0f 85 d7 01 00 00    	jne    5e00 <ft_strncmp+0x200>
    5c29:	4c 8d 47 ff          	lea    r8,[rdi-0x1]
    5c2d:	41 83 e0 07          	and    r8d,0x7
    5c31:	0f 84 00 01 00 00    	je     5d37 <ft_strncmp+0x137>
    5c37:	84 d2                	test   dl,dl
    5c39:	0f 84 c9 01 00 00    	je     5e08 <ft_strncmp+0x208>
    5c3f:	b9 02 00 00 00       	mov    ecx,0x2
    5c44:	41 0f b6 44 09 ff    	movzx  eax,BYTE PTR [r9+rcx*1-0x1]
    5c4a:	0f b6 54 0e ff       	movzx  edx,BYTE PTR [rsi+rcx*1-0x1]
    5c4f:	38 d0                	cmp    al,dl
    5c51:	0f 85 a9 01 00 00    	jne    5e00 <ft_strncmp+0x200>
    5c57:	49 83 f8 01          	cmp    r8,0x1
    5c5b:	0f 84 d6 00 00 00    	je     5d37 <ft_strncmp+0x137>
    5c61:	49 83 f8 02          	cmp    r8,0x2
    5c65:	0f 84 ad 00 00 00    	je     5d18 <ft_strncmp+0x118>
    5c6b:	49 83 f8 03          	cmp    r8,0x3
    5c6f:	0f 84 86 00 00 00    	je     5cfb <ft_strncmp+0xfb>
    5c75:	49 83 f8 04          	cmp    r8,0x4
    5c79:	74 63                	je     5cde <ft_strncmp+0xde>
    5c7b:	49 83 f8 05          	cmp    r8,0x5
    5c7f:	74 40                	je     5cc1 <ft_strncmp+0xc1>
    5c81:	49 83 f8 06          	cmp    r8,0x6
    5c85:	74 1d                	je     5ca4 <ft_strncmp+0xa4>
    5c87:	84 c0                	test   al,al
    5c89:	0f 84 79 01 00 00    	je     5e08 <ft_strncmp+0x208>
    5c8f:	41 0f b6 04 09       	movzx  eax,BYTE PTR [r9+rcx*1]
    5c94:	0f b6 14 0e          	movzx  edx,BYTE PTR [rsi+rcx*1]
    5c98:	48 83 c1 01          	add    rcx,0x1
    5c9c:	38 d0                	cmp    al,dl
    5c9e:	0f 85 5c 01 00 00    	jne    5e00 <ft_strncmp+0x200>
    5ca4:	84 c0                	test   al,al
    5ca6:	0f 84 5c 01 00 00    	je     5e08 <ft_strncmp+0x208>
    5cac:	41 0f b6 04 09       	movzx  eax,BYTE PTR [r9+rcx*1]
    5cb1:	0f b6 14 0e          	movzx  edx,BYTE PTR [rsi+rcx*1]
    5cb5:	48 83 c1 01          	add    rcx,0x1
    5cb9:	38 d0                	cmp    al,dl
    5cbb:	0f 85 3f 01 00 00    	jne    5e00 <ft_strncmp+0x200>
    5cc1:	84 c0                	test   al,al
    5cc3:	0f 84 3f 01 00 00    	je     5e08 <ft_strncmp+0x208>
    5cc9:	41 0f b6 04 09       	movzx  eax,BYTE PTR [r9+rcx*1]
    5cce:	0f b6 14 0e          	movzx  edx,BYTE PTR [rsi+rcx*1]
    5cd2:	48 83 c1 01          	add    rcx,0x1
    5cd6:	38 d0                	cmp    al,dl
    5cd8:	0f 85 22 01 00 00    	jne    5e00 <ft_strncmp+0x200>
    5cde:	84 c0                	test   al,al
    5ce0:	0f 84 22 01 00 00    	je     5e08 <ft_strncmp+0x208>
    5ce6:	41 0f b6 04 09       	movzx  eax,BYTE PTR [r9+rcx*1]
    5ceb:	0f b6 14 0e          	movzx  edx,BYTE PTR [rsi+rcx*1]
    5cef:	48 83 c1 01          	add    rcx,0x1
    5cf3:	38 d0                	cmp    al,dl
    5cf5:	0f 85 05 01 00 00    	jne    5e00 <ft_strncmp+0x200>
    5cfb:	84 c0                	test   al,al
    5cfd:	0f 84 05 01 00 00    	je     5e08 <ft_strncmp+0x208>
    5d03:	41 0f b6 04 09       	movzx  eax,BYTE PTR [r9+rcx*1]
    5d08:	0f b6 14 0e          	movzx  edx,BYTE PTR [rsi+rcx*1]
    5d0c:	48 83 c1 01          	add    rcx,0x1
    5d10:	38 d0                	cmp    al,dl
    5d12:	0f 85 e8 00 00 00    	jne    5e00 <ft_strncmp+0x200>
    5d18:	84 c0                	test   al,al
    5d1a:	0f 84 e8 00 00 00    	je     5e08 <ft_strncmp+0x208>
    5d20:	48 83 c1 01          	add    rcx,0x1
    5d24:	41 0f b6 44 09 ff    	movzx  eax,BYTE PTR [r9+rcx*1-0x1]
    5d2a:	0f b6 54 0e ff       	movzx  edx,BYTE PTR [rsi+rcx*1-0x1]
    5d2f:	38 d0                	cmp    al,dl
    5d31:	0f 85 c9 00 00 00    	jne    5e00 <ft_strncmp+0x200>
    5d37:	84 c0                	test   al,al
    5d39:	0f 84 c9 00 00 00    	je     5e08 <ft_strncmp+0x208>
    5d3f:	48 39 cf             	cmp    rdi,rcx
    5d42:	0f 84 b8 00 00 00    	je     5e00 <ft_strncmp+0x200>
    5d48:	4c 8d 51 01          	lea    r10,[rcx+0x1]
    5d4c:	43 0f b6 44 11 ff    	movzx  eax,BYTE PTR [r9+r10*1-0x1]
    5d52:	42 0f b6 54 16 ff    	movzx  edx,BYTE PTR [rsi+r10*1-0x1]
    5d58:	38 d0                	cmp    al,dl
    5d5a:	0f 85 a0 00 00 00    	jne    5e00 <ft_strncmp+0x200>
    5d60:	84 d2                	test   dl,dl
    5d62:	0f 84 a0 00 00 00    	je     5e08 <ft_strncmp+0x208>
    5d68:	41 0f b6 44 09 01    	movzx  eax,BYTE PTR [r9+rcx*1+0x1]
    5d6e:	0f b6 54 0e 01       	movzx  edx,BYTE PTR [rsi+rcx*1+0x1]
    5d73:	38 d0                	cmp    al,dl
    5d75:	0f 85 85 00 00 00    	jne    5e00 <ft_strncmp+0x200>
    5d7b:	84 d2                	test   dl,dl
    5d7d:	0f 84 85 00 00 00    	je     5e08 <ft_strncmp+0x208>
    5d83:	41 0f b6 44 09 02    	movzx  eax,BYTE PTR [r9+rcx*1+0x2]
    5d89:	0f b6 54 0e 02       	movzx  edx,BYTE PTR [rsi+rcx*1+0x2]
    5d8e:	38 d0                	cmp    al,dl
    5d90:	75 6e                	jne    5e00 <ft_strncmp+0x200>
    5d92:	84 d2                	test   dl,dl
    5d94:	74 72                	je     5e08 <ft_strncmp+0x208>
    5d96:	41 0f b6 44 09 03    	movzx  eax,BYTE PTR [r9+rcx*1+0x3]
    5d9c:	0f b6 54 0e 03       	movzx  edx,BYTE PTR [rsi+rcx*1+0x3]
    5da1:	38 d0                	cmp    al,dl
    5da3:	75 5b                	jne    5e00 <ft_strncmp+0x200>
    5da5:	84 d2                	test   dl,dl
    5da7:	74 5f                	je     5e08 <ft_strncmp+0x208>
    5da9:	43 0f b6 44 11 03    	movzx  eax,BYTE PTR [r9+r10*1+0x3]
    5daf:	42 0f b6 54 16 03    	movzx  edx,BYTE PTR [rsi+r10*1+0x3]
    5db5:	38 d0                	cmp    al,dl
    5db7:	75 47                	jne    5e00 <ft_strncmp+0x200>
    5db9:	84 c0                	test   al,al
    5dbb:	74 4b                	je     5e08 <ft_strncmp+0x208>
    5dbd:	43 0f b6 44 11 04    	movzx  eax,BYTE PTR [r9+r10*1+0x4]
    5dc3:	42 0f b6 54 16 04    	movzx  edx,BYTE PTR [rsi+r10*1+0x4]
    5dc9:	38 d0                	cmp    al,dl
    5dcb:	75 33                	jne    5e00 <ft_strncmp+0x200>
    5dcd:	84 c0                	test   al,al
    5dcf:	74 37                	je     5e08 <ft_strncmp+0x208>
    5dd1:	43 0f b6 44 11 05    	movzx  eax,BYTE PTR [r9+r10*1+0x5]
    5dd7:	42 0f b6 54 16 05    	movzx  edx,BYTE PTR [rsi+r10*1+0x5]
    5ddd:	38 d0                	cmp    al,dl
    5ddf:	75 1f                	jne    5e00 <ft_strncmp+0x200>
    5de1:	84 c0                	test   al,al
    5de3:	74 23                	je     5e08 <ft_strncmp+0x208>
    5de5:	49 8d 4a 07          	lea    rcx,[r10+0x7]
    5de9:	41 0f b6 44 09 ff    	movzx  eax,BYTE PTR [r9+rcx*1-0x1]
    5def:	0f b6 54 0e ff       	movzx  edx,BYTE PTR [rsi+rcx*1-0x1]
    5df4:	38 d0                	cmp    al,dl
    5df6:	0f 84 3b ff ff ff    	je     5d37 <ft_strncmp+0x137>
    5dfc:	0f 1f 40 00          	nop    DWORD PTR [rax+0x0]
    5e00:	29 d0                	sub    eax,edx
    5e02:	c3                   	ret    
    5e03:	0f 1f 44 00 00       	nop    DWORD PTR [rax+rax*1+0x0]
    5e08:	31 c0                	xor    eax,eax
    5e0a:	29 d0                	sub    eax,edx
    5e0c:	eb f4                	jmp    5e02 <ft_strncmp+0x202>
    5e0e:	66 90                	xchg   ax,ax

0000000000005e10 <ft_atoi>:
    5e10:	f3 0f 1e fa          	endbr64 
    5e14:	eb 0e                	jmp    5e24 <ft_atoi+0x14>
    5e16:	66 2e 0f 1f 84 00 00 	cs nop WORD PTR [rax+rax*1+0x0]
    5e1d:	00 00 00 
    5e20:	48 83 c7 01          	add    rdi,0x1
    5e24:	0f b6 07             	movzx  eax,BYTE PTR [rdi]
    5e27:	8d 50 f7             	lea    edx,[rax-0x9]
    5e2a:	80 fa 04             	cmp    dl,0x4
    5e2d:	76 f1                	jbe    5e20 <ft_atoi+0x10>
    5e2f:	3c 20                	cmp    al,0x20
    5e31:	74 ed                	je     5e20 <ft_atoi+0x10>
    5e33:	3c 2b                	cmp    al,0x2b
    5e35:	74 69                	je     5ea0 <ft_atoi+0x90>
    5e37:	3c 2d                	cmp    al,0x2d
    5e39:	74 45                	je     5e80 <ft_atoi+0x70>
    5e3b:	8d 48 d0             	lea    ecx,[rax-0x30]
    5e3e:	80 f9 09             	cmp    cl,0x9
    5e41:	77 54                	ja     5e97 <ft_atoi+0x87>
    5e43:	be 01 00 00 00       	mov    esi,0x1
    5e48:	45 31 db             	xor    r11d,r11d
    5e4b:	0f 1f 44 00 00       	nop    DWORD PTR [rax+rax*1+0x0]
    5e50:	83 e8 30             	sub    eax,0x30
    5e53:	4f 8d 14 9b          	lea    r10,[r11+r11*4]
    5e57:	48 83 c7 01          	add    rdi,0x1
    5e5b:	48 0f be c0          	movsx  rax,al
    5e5f:	4e 8d 1c 50          	lea    r11,[rax+r10*2]
    5e63:	0f b6 07             	movzx  eax,BYTE PTR [rdi]
    5e66:	8d 50 d0             	lea    edx,[rax-0x30]
    5e69:	80 fa 09             	cmp    dl,0x9
    5e6c:	76 e2                	jbe    5e50 <ft_atoi+0x40>
    5e6e:	4c 89 d8             	mov    rax,r11
    5e71:	48 f7 d8             	neg    rax
    5e74:	83 fe ff             	cmp    esi,0xffffffff
    5e77:	41 0f 45 c3          	cmovne eax,r11d
    5e7b:	c3                   	ret    
    5e7c:	0f 1f 40 00          	nop    DWORD PTR [rax+0x0]
    5e80:	0f b6 47 01          	movzx  eax,BYTE PTR [rdi+0x1]
    5e84:	be ff ff ff ff       	mov    esi,0xffffffff
    5e89:	48 83 c7 01          	add    rdi,0x1
    5e8d:	44 8d 40 d0          	lea    r8d,[rax-0x30]
    5e91:	41 80 f8 09          	cmp    r8b,0x9
    5e95:	76 b1                	jbe    5e48 <ft_atoi+0x38>
    5e97:	31 c0                	xor    eax,eax
    5e99:	c3                   	ret    
    5e9a:	66 0f 1f 44 00 00    	nop    WORD PTR [rax+rax*1+0x0]
    5ea0:	0f b6 47 01          	movzx  eax,BYTE PTR [rdi+0x1]
    5ea4:	be 01 00 00 00       	mov    esi,0x1
    5ea9:	48 83 c7 01          	add    rdi,0x1
    5ead:	44 8d 48 d0          	lea    r9d,[rax-0x30]
    5eb1:	41 80 f9 09          	cmp    r9b,0x9
    5eb5:	76 91                	jbe    5e48 <ft_atoi+0x38>
    5eb7:	eb de                	jmp    5e97 <ft_atoi+0x87>
    5eb9:	0f 1f 80 00 00 00 00 	nop    DWORD PTR [rax+0x0]

0000000000005ec0 <ft_atol>:
    5ec0:	f3 0f 1e fa          	endbr64 
    5ec4:	eb 0e                	jmp    5ed4 <ft_atol+0x14>
    5ec6:	66 2e 0f 1f 84 00 00 	cs nop WORD PTR [rax+rax*1+0x0]
    5ecd:	00 00 00 
    5ed0:	48 83 c7 01          	add    rdi,0x1
    5ed4:	0f b6 07             	movzx  eax,BYTE PTR [rdi]
    5ed7:	8d 50 f7             	lea    edx,[rax-0x9]
    5eda:	80 fa 04             	cmp    dl,0x4
    5edd:	76 f1                	jbe    5ed0 <ft_atol+0x10>
    5edf:	3c 20                	cmp    al,0x20
    5ee1:	74 ed                	je     5ed0 <ft_atol+0x10>
    5ee3:	3c 2b                	cmp    al,0x2b
    5ee5:	74 69                	je     5f50 <ft_atol+0x90>
    5ee7:	3c 2d                	cmp    al,0x2d
    5ee9:	74 45                	je     5f30 <ft_atol+0x70>
    5eeb:	8d 48 d0             	lea    ecx,[rax-0x30]
    5eee:	80 f9 09             	cmp    cl,0x9
    5ef1:	77 54                	ja     5f47 <ft_atol+0x87>
    5ef3:	be 01 00 00 00       	mov    esi,0x1
    5ef8:	45 31 db             	xor    r11d,r11d
    5efb:	0f 1f 44 00 00       	nop    DWORD PTR [rax+rax*1+0x0]
    5f00:	83 e8 30             	sub    eax,0x30
    5f03:	4f 8d 14 9b          	lea    r10,[r11+r11*4]
    5f07:	48 83 c7 01          	add    rdi,0x1
    5f0b:	48 0f be c0          	movsx  rax,al
    5f0f:	4e 8d 1c 50          	lea    r11,[rax+r10*2]
    5f13:	0f b6 07             	movzx  eax,BYTE PTR [rdi]
    5f16:	8d 50 d0             	lea    edx,[rax-0x30]
    5f19:	80 fa 09             	cmp    dl,0x9
    5f1c:	76 e2                	jbe    5f00 <ft_atol+0x40>
    5f1e:	4c 89 d8             	mov    rax,r11
    5f21:	48 f7 d8             	neg    rax
    5f24:	83 fe ff             	cmp    esi,0xffffffff
    5f27:	49 0f 45 c3          	cmovne rax,r11
    5f2b:	c3                   	ret    
    5f2c:	0f 1f 40 00          	nop    DWORD PTR [rax+0x0]
    5f30:	0f b6 47 01          	movzx  eax,BYTE PTR [rdi+0x1]
    5f34:	be ff ff ff ff       	mov    esi,0xffffffff
    5f39:	48 83 c7 01          	add    rdi,0x1
    5f3d:	44 8d 40 d0          	lea    r8d,[rax-0x30]
    5f41:	41 80 f8 09          	cmp    r8b,0x9
    5f45:	76 b1                	jbe    5ef8 <ft_atol+0x38>
    5f47:	31 c0                	xor    eax,eax
    5f49:	c3                   	ret    
    5f4a:	66 0f 1f 44 00 00    	nop    WORD PTR [rax+rax*1+0x0]
    5f50:	0f b6 47 01          	movzx  eax,BYTE PTR [rdi+0x1]
    5f54:	be 01 00 00 00       	mov    esi,0x1
    5f59:	48 83 c7 01          	add    rdi,0x1
    5f5d:	44 8d 48 d0          	lea    r9d,[rax-0x30]
    5f61:	41 80 f9 09          	cmp    r9b,0x9
    5f65:	76 91                	jbe    5ef8 <ft_atol+0x38>
    5f67:	eb de                	jmp    5f47 <ft_atol+0x87>
    5f69:	0f 1f 80 00 00 00 00 	nop    DWORD PTR [rax+0x0]

0000000000005f70 <try_atoi>:
    5f70:	f3 0f 1e fa          	endbr64 
    5f74:	41 54                	push   r12
    5f76:	49 89 f4             	mov    r12,rsi
    5f79:	55                   	push   rbp
    5f7a:	53                   	push   rbx
    5f7b:	0f b6 2f             	movzx  ebp,BYTE PTR [rdi]
    5f7e:	48 89 fb             	mov    rbx,rdi
    5f81:	c7 06 00 00 00 00    	mov    DWORD PTR [rsi],0x0
    5f87:	0f b6 07             	movzx  eax,BYTE PTR [rdi]
    5f8a:	8d 50 d5             	lea    edx,[rax-0x2b]
    5f8d:	81 e2 fd 00 00 00    	and    edx,0xfd
    5f93:	75 08                	jne    5f9d <try_atoi+0x2d>
    5f95:	0f b6 47 01          	movzx  eax,BYTE PTR [rdi+0x1]
    5f99:	48 83 c3 01          	add    rbx,0x1
    5f9d:	3c 30                	cmp    al,0x30
    5f9f:	75 10                	jne    5fb1 <try_atoi+0x41>
    5fa1:	0f 1f 80 00 00 00 00 	nop    DWORD PTR [rax+0x0]
    5fa8:	48 83 c3 01          	add    rbx,0x1
    5fac:	80 3b 30             	cmp    BYTE PTR [rbx],0x30
    5faf:	74 f7                	je     5fa8 <try_atoi+0x38>
    5fb1:	48 89 df             	mov    rdi,rbx
    5fb4:	e8 a7 fb ff ff       	call   5b60 <ft_strlen>
    5fb9:	49 89 c0             	mov    r8,rax
    5fbc:	31 c0                	xor    eax,eax
    5fbe:	49 83 f8 0b          	cmp    r8,0xb
    5fc2:	76 0c                	jbe    5fd0 <try_atoi+0x60>
    5fc4:	5b                   	pop    rbx
    5fc5:	5d                   	pop    rbp
    5fc6:	41 5c                	pop    r12
    5fc8:	c3                   	ret    
    5fc9:	0f 1f 80 00 00 00 00 	nop    DWORD PTR [rax+0x0]
    5fd0:	0f b6 0b             	movzx  ecx,BYTE PTR [rbx]
    5fd3:	8d 71 f7             	lea    esi,[rcx-0x9]
    5fd6:	89 cf                	mov    edi,ecx
    5fd8:	40 80 fe 04          	cmp    sil,0x4
    5fdc:	76 09                	jbe    5fe7 <try_atoi+0x77>
    5fde:	80 f9 20             	cmp    cl,0x20
    5fe1:	0f 85 f6 00 00 00    	jne    60dd <try_atoi+0x16d>
    5fe7:	49 89 d9             	mov    r9,rbx
    5fea:	66 0f 1f 44 00 00    	nop    WORD PTR [rax+rax*1+0x0]
    5ff0:	41 0f b6 41 01       	movzx  eax,BYTE PTR [r9+0x1]
    5ff5:	49 83 c1 01          	add    r9,0x1
    5ff9:	44 8d 50 f7          	lea    r10d,[rax-0x9]
    5ffd:	89 c7                	mov    edi,eax
    5fff:	41 80 fa 04          	cmp    r10b,0x4
    6003:	76 eb                	jbe    5ff0 <try_atoi+0x80>
    6005:	3c 20                	cmp    al,0x20
    6007:	74 e7                	je     5ff0 <try_atoi+0x80>
    6009:	3c 2b                	cmp    al,0x2b
    600b:	0f 84 9f 00 00 00    	je     60b0 <try_atoi+0x140>
    6011:	41 bb 01 00 00 00    	mov    r11d,0x1
    6017:	3c 2d                	cmp    al,0x2d
    6019:	75 0e                	jne    6029 <try_atoi+0xb9>
    601b:	41 0f b6 41 01       	movzx  eax,BYTE PTR [r9+0x1]
    6020:	45 31 db             	xor    r11d,r11d
    6023:	49 83 c1 01          	add    r9,0x1
    6027:	89 c7                	mov    edi,eax
    6029:	83 ef 30             	sub    edi,0x30
    602c:	40 80 ff 09          	cmp    dil,0x9
    6030:	77 66                	ja     6098 <try_atoi+0x128>
    6032:	45 31 c0             	xor    r8d,r8d
    6035:	0f 1f 00             	nop    DWORD PTR [rax]
    6038:	83 e8 30             	sub    eax,0x30
    603b:	4b 8d 14 80          	lea    rdx,[r8+r8*4]
    603f:	49 83 c1 01          	add    r9,0x1
    6043:	48 0f be c0          	movsx  rax,al
    6047:	4c 8d 04 50          	lea    r8,[rax+rdx*2]
    604b:	41 0f b6 01          	movzx  eax,BYTE PTR [r9]
    604f:	8d 70 d0             	lea    esi,[rax-0x30]
    6052:	40 80 fe 09          	cmp    sil,0x9
    6056:	76 e0                	jbe    6038 <try_atoi+0xc8>
    6058:	49 81 f8 ff ff ff 7f 	cmp    r8,0x7fffffff
    605f:	7e 37                	jle    6098 <try_atoi+0x128>
    6061:	31 c0                	xor    eax,eax
    6063:	45 84 db             	test   r11b,r11b
    6066:	74 30                	je     6098 <try_atoi+0x128>
    6068:	5b                   	pop    rbx
    6069:	5d                   	pop    rbp
    606a:	41 5c                	pop    r12
    606c:	c3                   	ret    
    606d:	0f 1f 00             	nop    DWORD PTR [rax]
    6070:	0f be f9             	movsx  edi,cl
    6073:	e8 28 13 00 00       	call   73a0 <ft_isdigit>
    6078:	85 c0                	test   eax,eax
    607a:	74 54                	je     60d0 <try_atoi+0x160>
    607c:	41 8b 0c 24          	mov    ecx,DWORD PTR [r12]
    6080:	44 0f be 13          	movsx  r10d,BYTE PTR [rbx]
    6084:	48 83 c3 01          	add    rbx,0x1
    6088:	44 8d 0c 89          	lea    r9d,[rcx+rcx*4]
    608c:	43 8d 7c 4a d0       	lea    edi,[r10+r9*2-0x30]
    6091:	41 89 3c 24          	mov    DWORD PTR [r12],edi
    6095:	0f b6 0b             	movzx  ecx,BYTE PTR [rbx]
    6098:	84 c9                	test   cl,cl
    609a:	75 d4                	jne    6070 <try_atoi+0x100>
    609c:	40 80 fd 2d          	cmp    bpl,0x2d
    60a0:	75 04                	jne    60a6 <try_atoi+0x136>
    60a2:	41 f7 1c 24          	neg    DWORD PTR [r12]
    60a6:	5b                   	pop    rbx
    60a7:	b8 01 00 00 00       	mov    eax,0x1
    60ac:	5d                   	pop    rbp
    60ad:	41 5c                	pop    r12
    60af:	c3                   	ret    
    60b0:	41 0f b6 41 01       	movzx  eax,BYTE PTR [r9+0x1]
    60b5:	41 bb 01 00 00 00    	mov    r11d,0x1
    60bb:	49 83 c1 01          	add    r9,0x1
    60bf:	89 c7                	mov    edi,eax
    60c1:	e9 63 ff ff ff       	jmp    6029 <try_atoi+0xb9>
    60c6:	66 2e 0f 1f 84 00 00 	cs nop WORD PTR [rax+rax*1+0x0]
    60cd:	00 00 00 
    60d0:	5b                   	pop    rbx
    60d1:	5d                   	pop    rbp
    60d2:	41 c7 04 24 00 00 00 	mov    DWORD PTR [r12],0x0
    60d9:	00 
    60da:	41 5c                	pop    r12
    60dc:	c3                   	ret    
    60dd:	89 c8                	mov    eax,ecx
    60df:	49 89 d9             	mov    r9,rbx
    60e2:	e9 22 ff ff ff       	jmp    6009 <try_atoi+0x99>
    60e7:	66 0f 1f 84 00 00 00 	nop    WORD PTR [rax+rax*1+0x0]
    60ee:	00 00 

00000000000060f0 <ft_split>:
    60f0:	f3 0f 1e fa          	endbr64 
    60f4:	41 57                	push   r15
    60f6:	41 89 f7             	mov    r15d,esi
    60f9:	41 56                	push   r14
    60fb:	41 55                	push   r13
    60fd:	41 54                	push   r12
    60ff:	55                   	push   rbp
    6100:	48 89 fd             	mov    rbp,rdi
    6103:	53                   	push   rbx
    6104:	48 83 ec 08          	sub    rsp,0x8
    6108:	0f b6 07             	movzx  eax,BYTE PTR [rdi]
    610b:	84 c0                	test   al,al
    610d:	0f 84 e3 00 00 00    	je     61f6 <ft_split+0x106>
    6113:	48 89 fa             	mov    rdx,rdi
    6116:	31 f6                	xor    esi,esi
    6118:	b9 01 00 00 00       	mov    ecx,0x1
    611d:	eb 0f                	jmp    612e <ft_split+0x3e>
    611f:	90                   	nop
    6120:	31 c9                	xor    ecx,ecx
    6122:	0f b6 42 01          	movzx  eax,BYTE PTR [rdx+0x1]
    6126:	48 83 c2 01          	add    rdx,0x1
    612a:	84 c0                	test   al,al
    612c:	74 1e                	je     614c <ft_split+0x5c>
    612e:	41 38 c7             	cmp    r15b,al
    6131:	75 ed                	jne    6120 <ft_split+0x30>
    6133:	85 c9                	test   ecx,ecx
    6135:	75 eb                	jne    6122 <ft_split+0x32>
    6137:	0f b6 42 01          	movzx  eax,BYTE PTR [rdx+0x1]
    613b:	48 83 c2 01          	add    rdx,0x1
    613f:	48 83 c6 01          	add    rsi,0x1
    6143:	b9 01 00 00 00       	mov    ecx,0x1
    6148:	84 c0                	test   al,al
    614a:	75 e2                	jne    612e <ft_split+0x3e>
    614c:	83 f9 01             	cmp    ecx,0x1
    614f:	48 83 d6 01          	adc    rsi,0x1
    6153:	bf 08 00 00 00       	mov    edi,0x8
    6158:	e8 83 1c 00 00       	call   7de0 <ft_calloc>
    615d:	44 0f b6 4d 00       	movzx  r9d,BYTE PTR [rbp+0x0]
    6162:	49 89 c5             	mov    r13,rax
    6165:	45 84 c9             	test   r9b,r9b
    6168:	74 71                	je     61db <ft_split+0xeb>
    616a:	45 31 e4             	xor    r12d,r12d
    616d:	48 85 c0             	test   rax,rax
    6170:	74 69                	je     61db <ft_split+0xeb>
    6172:	66 0f 1f 44 00 00    	nop    WORD PTR [rax+rax*1+0x0]
    6178:	31 db                	xor    ebx,ebx
    617a:	45 38 cf             	cmp    r15b,r9b
    617d:	75 0e                	jne    618d <ft_split+0x9d>
    617f:	eb 6f                	jmp    61f0 <ft_split+0x100>
    6181:	0f 1f 80 00 00 00 00 	nop    DWORD PTR [rax+0x0]
    6188:	40 84 ff             	test   dil,dil
    618b:	74 11                	je     619e <ft_split+0xae>
    618d:	48 89 de             	mov    rsi,rbx
    6190:	48 83 c3 01          	add    rbx,0x1
    6194:	0f b6 7c 1d 00       	movzx  edi,BYTE PTR [rbp+rbx*1+0x0]
    6199:	41 38 ff             	cmp    r15b,dil
    619c:	75 ea                	jne    6188 <ft_split+0x98>
    619e:	48 85 db             	test   rbx,rbx
    61a1:	74 4d                	je     61f0 <ft_split+0x100>
    61a3:	4c 8d 76 02          	lea    r14,[rsi+0x2]
    61a7:	4c 89 f7             	mov    rdi,r14
    61aa:	e8 91 c3 ff ff       	call   2540 <malloc@plt>
    61af:	4d 63 c4             	movsxd r8,r12d
    61b2:	4b 89 44 c5 00       	mov    QWORD PTR [r13+r8*8+0x0],rax
    61b7:	48 89 c7             	mov    rdi,rax
    61ba:	48 85 c0             	test   rax,rax
    61bd:	74 41                	je     6200 <ft_split+0x110>
    61bf:	48 89 ee             	mov    rsi,rbp
    61c2:	4c 89 f2             	mov    rdx,r14
    61c5:	41 83 c4 01          	add    r12d,0x1
    61c9:	48 01 dd             	add    rbp,rbx
    61cc:	e8 3f 1a 00 00       	call   7c10 <ft_strlcpy>
    61d1:	44 0f b6 4d 00       	movzx  r9d,BYTE PTR [rbp+0x0]
    61d6:	45 84 c9             	test   r9b,r9b
    61d9:	75 9d                	jne    6178 <ft_split+0x88>
    61db:	48 83 c4 08          	add    rsp,0x8
    61df:	4c 89 e8             	mov    rax,r13
    61e2:	5b                   	pop    rbx
    61e3:	5d                   	pop    rbp
    61e4:	41 5c                	pop    r12
    61e6:	41 5d                	pop    r13
    61e8:	41 5e                	pop    r14
    61ea:	41 5f                	pop    r15
    61ec:	c3                   	ret    
    61ed:	0f 1f 00             	nop    DWORD PTR [rax]
    61f0:	48 83 c5 01          	add    rbp,0x1
    61f4:	eb db                	jmp    61d1 <ft_split+0xe1>
    61f6:	be 01 00 00 00       	mov    esi,0x1
    61fb:	e9 53 ff ff ff       	jmp    6153 <ft_split+0x63>
    6200:	49 8b 7d 00          	mov    rdi,QWORD PTR [r13+0x0]
    6204:	4c 89 eb             	mov    rbx,r13
    6207:	48 85 ff             	test   rdi,rdi
    620a:	74 19                	je     6225 <ft_split+0x135>
    620c:	e8 af c3 ff ff       	call   25c0 <free@plt>
    6211:	48 83 c3 08          	add    rbx,0x8
    6215:	48 c7 43 f8 00 00 00 	mov    QWORD PTR [rbx-0x8],0x0
    621c:	00 
    621d:	48 8b 3b             	mov    rdi,QWORD PTR [rbx]
    6220:	48 85 ff             	test   rdi,rdi
    6223:	75 e7                	jne    620c <ft_split+0x11c>
    6225:	4c 89 ef             	mov    rdi,r13
    6228:	45 31 ed             	xor    r13d,r13d
    622b:	e8 90 c3 ff ff       	call   25c0 <free@plt>
    6230:	eb a9                	jmp    61db <ft_split+0xeb>
    6232:	66 66 2e 0f 1f 84 00 	data16 cs nop WORD PTR [rax+rax*1+0x0]
    6239:	00 00 00 00 
    623d:	0f 1f 00             	nop    DWORD PTR [rax]

0000000000006240 <get_count_words>:
    6240:	f3 0f 1e fa          	endbr64 
    6244:	0f b6 17             	movzx  edx,BYTE PTR [rdi]
    6247:	84 d2                	test   dl,dl
    6249:	74 45                	je     6290 <get_count_words+0x50>
    624b:	b9 01 00 00 00       	mov    ecx,0x1
    6250:	31 c0                	xor    eax,eax
    6252:	eb 12                	jmp    6266 <get_count_words+0x26>
    6254:	0f 1f 40 00          	nop    DWORD PTR [rax+0x0]
    6258:	31 c9                	xor    ecx,ecx
    625a:	0f b6 57 01          	movzx  edx,BYTE PTR [rdi+0x1]
    625e:	48 83 c7 01          	add    rdi,0x1
    6262:	84 d2                	test   dl,dl
    6264:	74 1e                	je     6284 <get_count_words+0x44>
    6266:	40 38 d6             	cmp    sil,dl
    6269:	75 ed                	jne    6258 <get_count_words+0x18>
    626b:	85 c9                	test   ecx,ecx
    626d:	75 eb                	jne    625a <get_count_words+0x1a>
    626f:	0f b6 57 01          	movzx  edx,BYTE PTR [rdi+0x1]
    6273:	48 83 c7 01          	add    rdi,0x1
    6277:	48 83 c0 01          	add    rax,0x1
    627b:	b9 01 00 00 00       	mov    ecx,0x1
    6280:	84 d2                	test   dl,dl
    6282:	75 e2                	jne    6266 <get_count_words+0x26>
    6284:	83 f9 01             	cmp    ecx,0x1
    6287:	48 83 d0 00          	adc    rax,0x0
    628b:	c3                   	ret    
    628c:	0f 1f 40 00          	nop    DWORD PTR [rax+0x0]
    6290:	31 c0                	xor    eax,eax
    6292:	c3                   	ret    
    6293:	66 66 2e 0f 1f 84 00 	data16 cs nop WORD PTR [rax+rax*1+0x0]
    629a:	00 00 00 00 
    629e:	66 90                	xchg   ax,ax

00000000000062a0 <clear_words>:
    62a0:	f3 0f 1e fa          	endbr64 
    62a4:	48 85 ff             	test   rdi,rdi
    62a7:	74 47                	je     62f0 <clear_words+0x50>
    62a9:	55                   	push   rbp
    62aa:	48 89 fd             	mov    rbp,rdi
    62ad:	53                   	push   rbx
    62ae:	48 83 ec 08          	sub    rsp,0x8
    62b2:	48 8b 3f             	mov    rdi,QWORD PTR [rdi]
    62b5:	48 85 ff             	test   rdi,rdi
    62b8:	74 1f                	je     62d9 <clear_words+0x39>
    62ba:	48 89 eb             	mov    rbx,rbp
    62bd:	0f 1f 00             	nop    DWORD PTR [rax]
    62c0:	e8 fb c2 ff ff       	call   25c0 <free@plt>
    62c5:	48 83 c3 08          	add    rbx,0x8
    62c9:	48 c7 43 f8 00 00 00 	mov    QWORD PTR [rbx-0x8],0x0
    62d0:	00 
    62d1:	48 8b 3b             	mov    rdi,QWORD PTR [rbx]
    62d4:	48 85 ff             	test   rdi,rdi
    62d7:	75 e7                	jne    62c0 <clear_words+0x20>
    62d9:	48 83 c4 08          	add    rsp,0x8
    62dd:	48 89 ef             	mov    rdi,rbp
    62e0:	5b                   	pop    rbx
    62e1:	5d                   	pop    rbp
    62e2:	e9 d9 c2 ff ff       	jmp    25c0 <free@plt>
    62e7:	66 0f 1f 84 00 00 00 	nop    WORD PTR [rax+rax*1+0x0]
    62ee:	00 00 
    62f0:	c3                   	ret    
    62f1:	66 66 2e 0f 1f 84 00 	data16 cs nop WORD PTR [rax+rax*1+0x0]
    62f8:	00 00 00 00 
    62fc:	0f 1f 40 00          	nop    DWORD PTR [rax+0x0]

0000000000006300 <get_count_to_words>:
    6300:	f3 0f 1e fa          	endbr64 
    6304:	31 c0                	xor    eax,eax
    6306:	48 83 3f 00          	cmp    QWORD PTR [rdi],0x0
    630a:	74 14                	je     6320 <get_count_to_words+0x20>
    630c:	0f 1f 40 00          	nop    DWORD PTR [rax+0x0]
    6310:	48 83 c0 01          	add    rax,0x1
    6314:	48 83 3c c7 00       	cmp    QWORD PTR [rdi+rax*8],0x0
    6319:	75 f5                	jne    6310 <get_count_to_words+0x10>
    631b:	c3                   	ret    
    631c:	0f 1f 40 00          	nop    DWORD PTR [rax+0x0]
    6320:	c3                   	ret    
    6321:	66 2e 0f 1f 84 00 00 	cs nop WORD PTR [rax+rax*1+0x0]
    6328:	00 00 00 
    632b:	0f 1f 44 00 00       	nop    DWORD PTR [rax+rax*1+0x0]

0000000000006330 <get_min>:
    6330:	f3 0f 1e fa          	endbr64 
    6334:	39 f7                	cmp    edi,esi
    6336:	89 f0                	mov    eax,esi
    6338:	0f 4e c7             	cmovle eax,edi
    633b:	c3                   	ret    
    633c:	0f 1f 40 00          	nop    DWORD PTR [rax+0x0]

0000000000006340 <get_max>:
    6340:	f3 0f 1e fa          	endbr64 
    6344:	39 f7                	cmp    edi,esi
    6346:	89 f0                	mov    eax,esi
    6348:	0f 4d c7             	cmovge eax,edi
    634b:	c3                   	ret    
    634c:	0f 1f 40 00          	nop    DWORD PTR [rax+0x0]

0000000000006350 <get_abs>:
    6350:	f3 0f 1e fa          	endbr64 
    6354:	89 f0                	mov    eax,esi
    6356:	29 f8                	sub    eax,edi
    6358:	29 f7                	sub    edi,esi
    635a:	0f 49 c7             	cmovns eax,edi
    635d:	c3                   	ret    
    635e:	66 90                	xchg   ax,ax

0000000000006360 <read_line_in_file_malloc>:
    6360:	f3 0f 1e fa          	endbr64 
    6364:	41 54                	push   r12
    6366:	be 01 00 00 00       	mov    esi,0x1
    636b:	55                   	push   rbp
    636c:	89 fd                	mov    ebp,edi
    636e:	bf 01 04 00 00       	mov    edi,0x401
    6373:	48 83 ec 08          	sub    rsp,0x8
    6377:	e8 94 c3 ff ff       	call   2710 <calloc@plt>
    637c:	ba 00 04 00 00       	mov    edx,0x400
    6381:	89 ef                	mov    edi,ebp
    6383:	48 89 c6             	mov    rsi,rax
    6386:	49 89 c4             	mov    r12,rax
    6389:	e8 92 c1 ff ff       	call   2520 <read@plt>
    638e:	48 85 c0             	test   rax,rax
    6391:	7e 0b                	jle    639e <read_line_in_file_malloc+0x3e>
    6393:	48 83 c4 08          	add    rsp,0x8
    6397:	4c 89 e0             	mov    rax,r12
    639a:	5d                   	pop    rbp
    639b:	41 5c                	pop    r12
    639d:	c3                   	ret    
    639e:	4c 89 e7             	mov    rdi,r12
    63a1:	45 31 e4             	xor    r12d,r12d
    63a4:	e8 17 c2 ff ff       	call   25c0 <free@plt>
    63a9:	eb e8                	jmp    6393 <read_line_in_file_malloc+0x33>
    63ab:	0f 1f 44 00 00       	nop    DWORD PTR [rax+rax*1+0x0]

00000000000063b0 <join_buffer_in_table_malloc>:
    63b0:	f3 0f 1e fa          	endbr64 
    63b4:	41 56                	push   r14
    63b6:	41 55                	push   r13
    63b8:	41 54                	push   r12
    63ba:	41 89 f4             	mov    r12d,esi
    63bd:	55                   	push   rbp
    63be:	48 89 fd             	mov    rbp,rdi
    63c1:	89 f7                	mov    edi,esi
    63c3:	53                   	push   rbx
    63c4:	e8 97 ff ff ff       	call   6360 <read_line_in_file_malloc>
    63c9:	49 89 c5             	mov    r13,rax
    63cc:	31 c0                	xor    eax,eax
    63ce:	4d 85 ed             	test   r13,r13
    63d1:	0f 84 b1 00 00 00    	je     6488 <join_buffer_in_table_malloc+0xd8>
    63d7:	44 89 e6             	mov    esi,r12d
    63da:	48 89 ef             	mov    rdi,rbp
    63dd:	e8 6e 02 00 00       	call   6650 <get_value_or_null>
    63e2:	48 89 c7             	mov    rdi,rax
    63e5:	48 89 c3             	mov    rbx,rax
    63e8:	e8 73 f7 ff ff       	call   5b60 <ft_strlen>
    63ed:	4c 89 ef             	mov    rdi,r13
    63f0:	49 89 c6             	mov    r14,rax
    63f3:	e8 68 f7 ff ff       	call   5b60 <ft_strlen>
    63f8:	49 8d 7c 06 01       	lea    rdi,[r14+rax*1+0x1]
    63fd:	e8 3e c1 ff ff       	call   2540 <malloc@plt>
    6402:	0f b6 13             	movzx  edx,BYTE PTR [rbx]
    6405:	49 89 c6             	mov    r14,rax
    6408:	84 d2                	test   dl,dl
    640a:	0f 84 88 00 00 00    	je     6498 <join_buffer_in_table_malloc+0xe8>
    6410:	b8 01 00 00 00       	mov    eax,0x1
    6415:	0f 1f 00             	nop    DWORD PTR [rax]
    6418:	41 88 54 06 ff       	mov    BYTE PTR [r14+rax*1-0x1],dl
    641d:	48 63 f0             	movsxd rsi,eax
    6420:	48 89 c1             	mov    rcx,rax
    6423:	48 83 c0 01          	add    rax,0x1
    6427:	0f b6 54 03 ff       	movzx  edx,BYTE PTR [rbx+rax*1-0x1]
    642c:	84 d2                	test   dl,dl
    642e:	75 e8                	jne    6418 <join_buffer_in_table_malloc+0x68>
    6430:	4c 01 f1             	add    rcx,r14
    6433:	45 0f b6 45 00       	movzx  r8d,BYTE PTR [r13+0x0]
    6438:	45 84 c0             	test   r8b,r8b
    643b:	74 2d                	je     646a <join_buffer_in_table_malloc+0xba>
    643d:	8d 46 01             	lea    eax,[rsi+0x1]
    6440:	4c 89 ef             	mov    rdi,r13
    6443:	48 98                	cdqe   
    6445:	48 29 f7             	sub    rdi,rsi
    6448:	0f 1f 84 00 00 00 00 	nop    DWORD PTR [rax+rax*1+0x0]
    644f:	00 
    6450:	45 88 44 06 ff       	mov    BYTE PTR [r14+rax*1-0x1],r8b
    6455:	48 63 c8             	movsxd rcx,eax
    6458:	48 83 c0 01          	add    rax,0x1
    645c:	44 0f b6 44 07 ff    	movzx  r8d,BYTE PTR [rdi+rax*1-0x1]
    6462:	45 84 c0             	test   r8b,r8b
    6465:	75 e9                	jne    6450 <join_buffer_in_table_malloc+0xa0>
    6467:	4c 01 f1             	add    rcx,r14
    646a:	c6 01 00             	mov    BYTE PTR [rcx],0x0
    646d:	4c 89 ef             	mov    rdi,r13
    6470:	e8 4b c1 ff ff       	call   25c0 <free@plt>
    6475:	4c 89 f2             	mov    rdx,r14
    6478:	44 89 e6             	mov    esi,r12d
    647b:	48 89 ef             	mov    rdi,rbp
    647e:	e8 1d 02 00 00       	call   66a0 <update_key>
    6483:	b8 01 00 00 00       	mov    eax,0x1
    6488:	5b                   	pop    rbx
    6489:	5d                   	pop    rbp
    648a:	41 5c                	pop    r12
    648c:	41 5d                	pop    r13
    648e:	41 5e                	pop    r14
    6490:	c3                   	ret    
    6491:	0f 1f 80 00 00 00 00 	nop    DWORD PTR [rax+0x0]
    6498:	48 89 c1             	mov    rcx,rax
